(dp1
S'output'
p2
S'missing "pass" in view'
p3
sS'layer'
p4
S'ParserContainer'
p5
sS'code'
p6
S'response.write(\'<!--[if HTML5]><![endif]-->\\n<!DOCTYPE html>\\n<!-- paulirish.com/2008/conditional-stylesheets-vs-css-hacks-answer-neither/ -->\\n<!--[if lt IE 7]><html class="ie ie6 ie-lte9 ie-lte8 ie-lte7 no-js" lang="\', escape=False)\nresponse.write(T.accepted_language or \'en\')\nresponse.write(\'"> <![endif]-->\\n<!--[if IE 7]><html class="ie ie7 ie-lte9 ie-lte8 ie-lte7 no-js" lang="\', escape=False)\nresponse.write(T.accepted_language or \'en\')\nresponse.write(\'"> <![endif]-->\\n<!--[if IE 8]><html class="ie ie8 ie-lte9 ie-lte8 no-js" lang="\', escape=False)\nresponse.write(T.accepted_language or \'en\')\nresponse.write(\'"> <![endif]-->\\n<!--[if IE 9]><html class="ie9 ie-lte9 no-js" lang="\', escape=False)\nresponse.write(T.accepted_language or \'en\')\nresponse.write(\'"> <![endif]-->\\n<!--[if (gt IE 9)|!(IE)]><!--> <html class="no-js" lang="\', escape=False)\nresponse.write(T.accepted_language or \'en\')\nresponse.write(\'"> <!--<![endif]-->\\n<head>\\n  \', escape=False)\nresponse.files.insert(0,URL(\'static\',\'css/screen.css\'))\nresponse.write(\'\\n\\n  \', escape=False)\nresponse.write(\'<script type="text/javascript"><!--\\n    // These variables are used by the web2py_ajax_init function in web2py_ajax.js (which is loaded below).\\n    var w2p_ajax_confirm_message = "\', escape=False)\nresponse.write(T(\'Are you sure you want to delete this object?\'))\nresponse.write(\'";\\n    var w2p_ajax_disable_with_message = "\', escape=False)\nresponse.write(T(\'Working...\'))\nresponse.write(\'";\\n    var w2p_ajax_date_format = "\', escape=False)\nresponse.write(T(\'%Y-%m-%d\'))\nresponse.write(\'";\\n    var w2p_ajax_datetime_format = "\', escape=False)\nresponse.write(T(\'%Y-%m-%d %H:%M:%S\'))\nresponse.write(\'";\\n    var ajax_error_500 = \\\'\', escape=False)\nresponse.write(T.M(\'An error occured, please [[reload %s]] the page\') % URL(args=request.args, vars=request.get_vars))\nresponse.write("\'\\n    //--></script>\\n", escape=False)\nresponse.files.insert(0,URL(\'static\',\'js/jquery.js\'))\nresponse.files.insert(1,URL(\'static\',\'css/calendar.css\'))\nresponse.files.insert(2,URL(\'static\',\'js/calendar.js\'))\nresponse.files.insert(3,URL(\'static\',\'js/web2py.js\'))\nresponse.include_meta()\nresponse.include_files()\nresponse.write(\'\\n\', escape=False)\nresponse.write(\'\\n\\n\\n<title>$$APLICATION NAME$$</title>\\n\\n<meta http-equiv="content-type" content="application/xhtml+xml; charset=UTF-8" />\\n</head>\\n <body>\\n        \', escape=False)\nresponse.write(\'<!-- TRANS  Log in -->\\n<!-- TRANS  Log out -->\\n<!-- TRANS  Sign up -->\\n\\n<div id="header-wrap">\\n    <div id="header" class="container_16">\\n        <h1 id="logo-text"><a href="http://all-free-download.com/free-website-templates/">Keep It Simple</a></h1>\\n        <p id="intro">Put your favorite slogan here...</p>\\n        <div  id="nav">\\n            <ul>\\n                <li><a href="/">Home</a></li>\\n                <li><a href="\', escape=False)\nresponse.write(URL(\'post\', \'new\'))\nresponse.write(\'">New Post</a></li>\\n                <li id="current"><a href="blog.html">Blog</a></li>\\n                <li><a href="http://all-free-download.com/free-website-templates/">Services</a></li>\\n                <li><a href="http://all-free-download.com/free-website-templates/">Support</a></li>\\n                <li><a href="http://all-free-download.com/free-website-templates/">About</a></li>\\n            </ul>\\n        </div>\\n        <div id="header-image"></div>\\n        <form id="quick-search" action="#" method="get" >\\n            <p>\\n                <label for="qsearch">Search:</label>\\n                <input class="tbox" id="qsearch" type="text" name="qsearch" value="Search..." title="Start typing and hit ENTER" />\\n                <input class="btn" alt="Search" type="image" name="searchsubmit" title="Search" src="\', escape=False)\nresponse.write(URL(\'static\', \'images/search.gif\'))\nresponse.write(\'" />\\n            </p>\\n        </form>\\n        \', escape=False)\nif auth.user:\n    response.write(\'\\n                <p id="corner1"><a href="\', escape=False)\n    response.write(URL(\'default\', \'login\'))\n    response.write(\'">\', escape=False)\n    response.write(auth.user.username)\n    response.write(\'</a></p>\\n                <p id="corner2"><a href="\', escape=False)\n    response.write(URL(\'default\', \'logout\'))\n    response.write(\'">Log out</a></p>\\n\\n        \', escape=False)\nelse:\n    response.write(\'\\n                <p id="corner1"><a href="\', escape=False)\n    response.write(URL(\'default\', \'register\'))\n    response.write(\'">Sign up</a></p>\\n                <p id="corner2"><a href="\', escape=False)\n    response.write(URL(\'default\', \'login\'))\n    response.write(\'">Log in</a></p>\\n        \', escape=False)\n    pass\nresponse.write(\'\\n        \\n\\n    </div>\\n</div>\\n\', escape=False)\nresponse.write(\'\\n        <div id="content-outer" >\\n\\n            \', escape=False)\nresponse.write(\'\\n<div id="content-wrapper-twocols"  class="container_16">\\n    <div id="main" class="grid_12 alpha">\\n        \', escape=False)\nresponse.write(\'\\n\\n\', escape=False)\nfor post in posts:\n    response.write(\'\\n\\n<!-- post title -->\\n<!-- LINK NEED TO COMPLETE -->\\n<h2><a href="http://all-free-download.com/free-website-templates/">\', escape=False)\n    response.write(post.title)\n    response.write(\'</a></h4>\\n\\n<!-- post info(time, author, tags ...) -->\\n<!-- LINKS NEED TO COMPLETE -->\\n<!-- TAGS NEED TO IMPLEMENTED -->\\n\', escape=False)\n    if post.if_display_author:\n        response.write(\'\\n<p class="post-info">\', escape=False)\n        response.write(label_posted_by)\n        response.write(\' <a href="http://all-free-download.com/free-website-templates/">\', escape=False)\n        response.write(post.author.username)\n        response.write(\'</a> |&nbsp;\\n    \', escape=False)\n        response.write(getLocalTimeStr(post.post_datetime))\n        response.write(\' | \', escape=False)\n        response.write(label_tags)\n        response.write(\'&nbsp;\\n    \', escape=False)\n        for post_tag_rel in post_tag_rels:\n            response.write(\'\\n        \', escape=False)\n            if post.id == post_tag_rel.post.id:\n                response.write(\'\\n        <a href="http://all-free-download.com/free-website-templates/">\', escape=False)\n                response.write(post_tag_rel.tag.tag_name)\n                response.write(\'</a>&nbsp;\\n    \', escape=False)\n                pass\n            response.write(\'\\n</p>\\n\', escape=False)\n        else:\n            response.write(\'\\n<p class="post-info">\', escape=False)\n            response.write(getLocalTimeStr(post.post_datetime))\n            response.write(\' | \', escape=False)\n            response.write(label_tags)\n            response.write(\'&nbsp;\\n    \', escape=False)\n            for post_tag_rel in post_tag_rels:\n                response.write(\'\\n        \', escape=False)\n                if post.id == post_tag_rel.post.id:\n                    response.write(\'\\n        <a href="http://all-free-download.com/free-website-templates/">\', escape=False)\n                    response.write(post_tag_rel.tag.tag_name)\n                    response.write(\'</a>&nbsp;\\n    \', escape=False)\n                    pass\n                response.write(\'\\n</p>\\n\', escape=False)\n                pass\n            response.write(\'\\n\\n<!-- post body -->\\n<p>\', escape=False)\n            response.write(XML(post.body))\n            response.write(\'</p>\\n\\n<!-- post footer(read more, commets) -->\\n<!-- READ MORE NEED TO IMPLEMENTED -->\\n<!-- COMMENTS NEED TO IMPLEMENTED -->\\n<p class="postmeta"> <a href="http://all-free-download.com/free-website-templates/" class="readmore">\', escape=False)\n            response.write(label_read_more)\n            response.write(\'</a> | <a href="http://all-free-download.com/free-website-templates/" class="comments">\', escape=False)\n            response.write(label_comments)\n            response.write(\' (7)</a></p>\\n\', escape=False)\n            pass\n        response.write(\'\\n\\n<!-- PAGE COUNT NEED TO IMPLEMENTED -->\\n\', escape=False)\n        response.write(\'\\n    </div>\\n    <div class="grid_4 omega">\\n    \', escape=False)\n        response.write(\'<div class="sidemenu">\\n    <h3>Sidebar Menu</h3>\\n    <ul>\\n        <li><a href="http://all-free-download.com/free-website-templates/">Home</a></li>\\n        <li><a href="http://all-free-download.com/free-website-templates/">TemplateInfo</a></li>\\n        <li><a href="style.html">Style Demo</a></li>\\n        <li><a href="blog.html">Blog</a></li>\\n        <li><a href="http://all-free-download.com/free-website-templates/">More Free Templates</a></li>\\n        <li><a href="http://all-free-download.com/free-website-templates/">Premium Templates</a></li>\\n    </ul>\\n</div>\\n<div class="sidemenu">\\n    <h3>Links</h3>\\n    <ul>\\n        <li><a href="http://all-free-download.com/free-website-templates/">PDPhoto</a></li>\\n        <li><a href="http://all-free-download.com/free-website-templates/">Alistapart</a></li>\\n        <li><a href="http://all-free-download.com/free-website-templates/">960 Grid System</a></li>\\n        <li><a href="http://all-free-download.com/free-website-templates/">FreePhotos.se</a></li>\\n    </ul>\\n</div>\\n<div class="sidemenu">\\n    <h3>Sponsors</h3>\\n    <ul>\\n        <li><a href="http://all-free-download.com/free-website-templates/">ThemeForest <br />\\n                <span>Your Choice for Site Templates, Wordpress, Joomla and CMS Themes</span></a></li>\\n        <li><a href="http://all-free-download.com/free-website-templates/">4templates <br />\\n                <span>Low Cost Hi-Quality Templates</span></a></li>\\n        <li><a href="http://all-free-download.com/free-website-templates/">TemplateMonster <br />\\n                <span>Delivering the Best Templates on the Net!</span></a></li>\\n        <li><a href="http://all-free-download.com/free-website-templates/">Text Link Ads <br />\\n                <span>Monetized your website</span></a></li>\\n        <li><a href="http://all-free-download.com/free-website-templates/">Fotolia <br />\\n                <span>Free stock images or from $1</span></a> </li>\\n        <li><a href="http://all-free-download.com/free-website-templates/">Dreamhost <br />\\n                <span>Premium webhosting</span></a></li>\\n    </ul>\\n</div>\\n<h3>Wise Words</h3>\\n<p> &quot;Beauty of style and harmony and grace and good rhythm depends on simplicity.&quot; </p>\\n<p class="align-right"> - Plato</p>\\n<h3>Support Styleshout</h3>\\n<p> If you are interested in supporting my work and would like to contribute, you are welcome to make a small donation through the donate link on my website - it will be a great help and will surely be appreciated.</p>\\n\', escape=False)\n        response.write(\'\\n    </div>\\n</div>\\n\', escape=False)\n        response.write(\'\\n            </div>\\n        </div>\\n        \', escape=False)\n        response.write(\'<div id="footer-wrapper" class="container_16">\\n    <div id="footer-content">\\n        <div class="grid_8">\\n            <h3>Resource Links</h3>\\n            <p> Lorem ipsum dolor sit amet, consectetuer adipiscing elit. Donec libero. Suspendisse bibendum. Cras id urna. Morbi tincidunt, orci ac convallis aliquam, lectus turpis varius lorem, eu posuere nunc justo tempus leo. Donec mattis, purus nec placerat bibendum, dui pede condimentum odio, ac blandit ante orci ut diam. <a href="http://all-free-download.com/free-website-templates/">Read more...</a> </p>\\n            <ul class="footer-list">\\n                <li><a href="http://all-free-download.com/free-website-templates/">ThemeForest - <span>Your Choice for Site Templates &amp; Wordpress Themes</span></a></li>\\n                <li><a href="http://all-free-download.com/free-website-templates/">CSSMania - <span>CSS Design Showcase</span></a></li>\\n                <li><a href="http://all-free-download.com/free-website-templates/">AListApart - <span>For People Who Make Websites</span></a></li>\\n                <li><a href="http://all-free-download.com/free-website-templates/">PSDTuts.com - <span>Photoshop Tutorials And Links</span></a></li>\\n                <li><a href="http://all-free-download.com/free-website-templates/">PDPhoto.org - <span>Public Domain Photos</span></a></li>\\n                <li><a href="http://all-free-download.com/free-website-templates/">FreePhotos.se - <span>Free &amp; Public Domain Photos</span></a></li>\\n                <li><a href="http://all-free-download.com/free-website-templates/">Fotolia - <span>Free stock images or from $1</span></a></li>\\n                <li><a href="http://all-free-download.com/free-website-templates/">4templates - <span>Low Cost Hi-Quality Templates</span></a></li>\\n            </ul>\\n        </div>\\n        <div class="grid_8">\\n            <h3>Image Gallery </h3>\\n            <p class="thumbs"> <a href="http://all-free-download.com/free-website-templates/"><img src="images/thumb.jpg" width="40" height="40" alt="" /></a> <a href="http://all-free-download.com/free-website-templates/"><img src="images/thumb.jpg" width="40" height="40" alt="" /></a> <a href="http://all-free-download.com/free-website-templates/"><img src="images/thumb.jpg" width="40" height="40" alt="" /></a> <a href="http://all-free-download.com/free-website-templates/"><img src="images/thumb.jpg" width="40" height="40" alt="" /></a> <a href="http://all-free-download.com/free-website-templates/"><img src="images/thumb.jpg" width="40" height="40" alt="" /></a> <a href="http://all-free-download.com/free-website-templates/"><img src="images/thumb.jpg" width="40" height="40" alt="" /></a> <a href="http://all-free-download.com/free-website-templates/"><img src="images/thumb.jpg" width="40" height="40" alt="" /></a> <a href="http://all-free-download.com/free-website-templates/"><img src="images/thumb.jpg" width="40" height="40" alt="" /></a> <a href="http://all-free-download.com/free-website-templates/"><img src="images/thumb.jpg" width="40" height="40" alt="" /></a> <a href="http://all-free-download.com/free-website-templates/"><img src="images/thumb.jpg" width="40" height="40" alt="" /></a> <a href="http://all-free-download.com/free-website-templates/"><img src="images/thumb.jpg" width="40" height="40" alt="" /></a> <a href="http://all-free-download.com/free-website-templates/"><img src="images/thumb.jpg" width="40" height="40" alt="" /></a> </p>\\n            <h3>About</h3>\\n            <p> <a href="http://all-free-download.com/free-website-templates/"><img src="images/gravatar.jpg" width="40" height="40" alt="" class="float-left" /></a> Lorem ipsum dolor sit amet, consectetuer adipiscing elit. Donec libero. Suspendisse bibendum. Cras id urna. Morbi tincidunt, orci ac convallis aliquam, lectus turpis varius lorem, eu posuere nunc justo tempus leo. Donec mattis, purus nec placerat bibendum, dui pede condimentum odio, ac blandit ante orci ut diam.</p>\\n            <p> Lorem ipsum dolor sit amet, consectetuer adipiscing elit. Donec libero. Suspendisse bibendum. Cras id urna. <a href="http://all-free-download.com/free-website-templates/">Learn more...</a></p>\\n        </div>\\n    </div>\\n    <div id="footer-bottom">\\n        <p class="bottom-left"> &nbsp; &copy;2008 All your copyright info here &nbsp; &nbsp; Design by : <a href="http://www.styleshout.com/">styleshout</a> </p>\\n        <p class="bottom-right" > <a href="http://all-free-download.com/free-website-templates/">Home</a> | <a href="http://all-free-download.com/free-website-templates/">Sitemap</a> | <a href="http://all-free-download.com/free-website-templates/">RSS Feed</a> | <a href="http://jigsaw.w3.org/css-validator/check/referer">CSS</a> | <a href="http://validator.w3.org/check/referer">XHTML</a> </p>\\n    </div>\\n</div>\\n<div align=center>This template  downloaded form <a href=\\\'http://all-free-download.com/free-website-templates/\\\'>free website templates</a></div></body>\\n\', escape=False)\n        response.write("\\n</body>\\n\\n\\n<script>\\n    $(document).ready(function() {\\n        $(\'.alert:empty\').hide();\\n    });\\n</script>\\n\\n<!-- Code for timezone detection -->\\n", escape=False)\n        if is_timezone_unknown:\n            response.write(\'\\n    <script src="https://cdnjs.cloudflare.com/ajax/libs/jstimezonedetect/1.0.6/jstz.min.js"></script>\\n    <script>\\n        $(function() {\\n            var tz_name = jstz.determine();\\n            $.get("\', escape=False)\n            response.write(URL(\'default\', \'set_timezone\'))\n            response.write(\'", tz_name);\\n        });\\n\\n    </script>\\n\', escape=False)\n            pass\n        response.write(\'\\n\\n</html>\\n\', escape=False)'
p7
sS'snapshot'
p8
(dp9
sS'traceback'
p10
S'None\n'
p11
s.