(dp1
S'output'
p2
S'<class \'sqlite3.OperationalError\'> near "|": syntax error'
p3
sS'layer'
p4
S'/home/jerryliu0228/web2py/applications/SmartBlog/controllers/default.py'
p5
sS'code'
p6
S'# -*- coding: utf-8 -*-\n# this file is released under public domain and you can use without limitations\n\n#########################################################################\n## This is a sample controller\n## - index is the default action of any application\n## - user is required for authentication and authorization\n## - download is for downloading files uploaded in the db (does streaming)\n## - api is an example of Hypermedia API support and access control\n#########################################################################\n\ndef index():\n    max_results = 10\n    page = 1\n    posts = db().select(db.post.ALL, limitby=((page-1) * max_results, page * max_results), orderby = "post.post_datetime DESC")\n\n    post_id_list = [post.id for post in posts]\n\n    post_tag_rels = db(db.post_tag.post.belongs(post_id_list)).select(db.post_tag.ALL, orderby = "db.post_tag.post DESC|db.post_tag.tag DESC")\n\n    # response variables:\n    # posts label_posted_by  label_tags label_read_more label_comments\n\n    return dict(posts = posts,\n                post_tag_rels = post_tag_rels,\n                label_posted_by = T(\'Posted by\'),\n                label_tags = T(\'Tags\'),\n                label_read_more = T(\'Read more\'),\n                label_comments = T(\'Comments\')\n                )\n\n\ndef login():\n    """\n    exposes:\n    http://..../[app]/default/user/login\n    http://..../[app]/default/user/logout\n    http://..../[app]/default/user/register\n    http://..../[app]/default/user/profile\n    http://..../[app]/default/user/retrieve_password\n    http://..../[app]/default/user/change_password\n    http://..../[app]/default/user/manage_users (requires membership in\n    use @auth.requires_login()\n        @auth.requires_membership(\'group name\')\n        @auth.requires_permission(\'read\',\'table name\',record_id)\n    to decorate functions that need access control\n    """\n    return dict(form=auth())\n\n\ndef logout():\n    auth.logout()\n    redirect(URL(\'index\'))\n\n\ndef register():\n    return dict(form=auth())\n\n@cache.action()\ndef download():\n    """\n    allows downloading of uploaded files\n    http://..../[app]/default/download/[filename]\n    """\n    return response.download(request, db)\n\n\ndef call():\n    """\n    exposes services. for example:\n    http://..../[app]/default/call/jsonrpc\n    decorate with @services.jsonrpc the functions to expose\n    supports xml, json, xmlrpc, jsonrpc, amfrpc, rss, csv\n    """\n    return service()\n\n\n@auth.requires_login()\ndef api():\n    """\n    this is example of API with access control\n    WEB2PY provides Hypermedia API (Collection+JSON) Experimental\n    """\n    from gluon.contrib.hypermedia import Collection\n    rules = {\n        \'<tablename>\': {\'GET\':{},\'POST\':{},\'PUT\':{},\'DELETE\':{}},\n        }\n    return Collection(db).process(request,response,rules)\n\n#Ajax call to set the timezone information for the session.\ndef set_timezone():\n    tz_name = request.vars.name\n    from pytz import all_timezones_set\n    if tz_name in all_timezones_set:\n        session.user_timezone = tz_name\n\nresponse._vars=response._caller(index)\n'
p7
sS'snapshot'
p8
(dp9
S'exception'
p10
(dp11
S'__module__'
p12
S"'sqlite3'"
p13
sS'__getslice__'
p14
S"<method-wrapper '__getslice__' of OperationalError object>"
p15
sS'__str__'
p16
S"<method-wrapper '__str__' of OperationalError object>"
p17
sS'__reduce__'
p18
S'<built-in method __reduce__ of OperationalError object>'
p19
sS'__dict__'
p20
S'{}'
p21
sS'__sizeof__'
p22
S'<built-in method __sizeof__ of OperationalError object>'
p23
sS'__weakref__'
p24
S'None'
p25
sS'__init__'
p26
S"<method-wrapper '__init__' of OperationalError object>"
p27
sS'__setattr__'
p28
S"<method-wrapper '__setattr__' of OperationalError object>"
p29
sS'__reduce_ex__'
p30
S'<built-in method __reduce_ex__ of OperationalError object>'
p31
sS'__new__'
p32
S'<built-in method __new__ of type object>'
p33
sS'__format__'
p34
S'<built-in method __format__ of OperationalError object>'
p35
sS'__class__'
p36
S"<class 'sqlite3.OperationalError'>"
p37
sS'__doc__'
p38
S'None'
p39
sS'__getitem__'
p40
S"<method-wrapper '__getitem__' of OperationalError object>"
p41
sS'__setstate__'
p42
S'<built-in method __setstate__ of OperationalError object>'
p43
sS'__getattribute__'
p44
S"<method-wrapper '__getattribute__' of OperationalError object>"
p45
sS'args'
p46
S'(\'near "|": syntax error\',)'
p47
sS'__subclasshook__'
p48
S'<built-in method __subclasshook__ of type object>'
p49
sS'__unicode__'
p50
S'<built-in method __unicode__ of OperationalError object>'
p51
sS'__delattr__'
p52
S"<method-wrapper '__delattr__' of OperationalError object>"
p53
sS'__repr__'
p54
S"<method-wrapper '__repr__' of OperationalError object>"
p55
sS'__hash__'
p56
S"<method-wrapper '__hash__' of OperationalError object>"
p57
ssS'evalue'
p58
S'near "|": syntax error'
p59
sS'request'
p60
cgluon.html
XML_unpickle
p61
(S's7]\x00\x00<div><table><tr><td style="font-weight:bold;vertical-align:top;">ajax</td><td style="vertical-align:top;">:</td><td><div>False</div></td></tr><tr><td style="font-weight:bold;vertical-align:top;">application</td><td style="vertical-align:top;">:</td><td><div>SmartBlog</div></td></tr><tr><td style="font-weight:bold;vertical-align:top;">args</td><td style="vertical-align:top;">:</td><td><div><table></table></div></td></tr><tr><td style="font-weight:bold;vertical-align:top;">cid</td><td style="vertical-align:top;">:</td><td><div>None</div></td></tr><tr><td style="font-weight:bold;vertical-align:top;">client</td><td style="vertical-align:top;">:</td><td><div>104.32.222.90</div></td></tr><tr><td style="font-weight:bold;vertical-align:top;">controller</td><td style="vertical-align:top;">:</td><td><div>default</div></td></tr><tr><td style="font-weight:bold;vertical-align:top;">cookies</td><td style="vertical-align:top;">:</td><td><div><table><tr><td style="font-weight:bold;vertical-align:top;">session_id_admin</td><td style="vertical-align:top;">:</td><td><div>104.32.222.90-417406ec-cc38-4591-b15c-175f2b8a025b<table><tr><td style="font-weight:bold;vertical-align:top;">comment</td><td style="vertical-align:top;">:</td><td><div></div></td></tr><tr><td style="font-weight:bold;vertical-align:top;">domain</td><td style="vertical-align:top;">:</td><td><div></div></td></tr><tr><td style="font-weight:bold;vertical-align:top;">expires</td><td style="vertical-align:top;">:</td><td><div></div></td></tr><tr><td style="font-weight:bold;vertical-align:top;">httponly</td><td style="vertical-align:top;">:</td><td><div></div></td></tr><tr><td style="font-weight:bold;vertical-align:top;">max-age</td><td style="vertical-align:top;">:</td><td><div></div></td></tr><tr><td style="font-weight:bold;vertical-align:top;">path</td><td style="vertical-align:top;">:</td><td><div></div></td></tr><tr><td style="font-weight:bold;vertical-align:top;">secure</td><td style="vertical-align:top;">:</td><td><div></div></td></tr><tr><td style="font-weight:bold;vertical-align:top;">version</td><td style="vertical-align:top;">:</td><td><div></div></td></tr></table></div></td></tr><tr><td style="font-weight:bold;vertical-align:top;">session_id_cms</td><td style="vertical-align:top;">:</td><td><div>104.32.222.90-34914f4f-1575-437a-ba28-a78ddae5cde7<table><tr><td style="font-weight:bold;vertical-align:top;">comment</td><td style="vertical-align:top;">:</td><td><div></div></td></tr><tr><td style="font-weight:bold;vertical-align:top;">domain</td><td style="vertical-align:top;">:</td><td><div></div></td></tr><tr><td style="font-weight:bold;vertical-align:top;">expires</td><td style="vertical-align:top;">:</td><td><div></div></td></tr><tr><td style="font-weight:bold;vertical-align:top;">httponly</td><td style="vertical-align:top;">:</td><td><div></div></td></tr><tr><td style="font-weight:bold;vertical-align:top;">max-age</td><td style="vertical-align:top;">:</td><td><div></div></td></tr><tr><td style="font-weight:bold;vertical-align:top;">path</td><td style="vertical-align:top;">:</td><td><div></div></td></tr><tr><td style="font-weight:bold;vertical-align:top;">secure</td><td style="vertical-align:top;">:</td><td><div></div></td></tr><tr><td style="font-weight:bold;vertical-align:top;">version</td><td style="vertical-align:top;">:</td><td><div></div></td></tr></table></div></td></tr><tr><td style="font-weight:bold;vertical-align:top;">session_id_smartblog</td><td style="vertical-align:top;">:</td><td><div>104.32.222.90-a544b220-362f-4c7b-8986-6517c53e7163<table><tr><td style="font-weight:bold;vertical-align:top;">comment</td><td style="vertical-align:top;">:</td><td><div></div></td></tr><tr><td style="font-weight:bold;vertical-align:top;">domain</td><td style="vertical-align:top;">:</td><td><div></div></td></tr><tr><td style="font-weight:bold;vertical-align:top;">expires</td><td style="vertical-align:top;">:</td><td><div></div></td></tr><tr><td style="font-weight:bold;vertical-align:top;">httponly</td><td style="vertical-align:top;">:</td><td><div></div></td></tr><tr><td style="font-weight:bold;vertical-align:top;">max-age</td><td style="vertical-align:top;">:</td><td><div></div></td></tr><tr><td style="font-weight:bold;vertical-align:top;">path</td><td style="vertical-align:top;">:</td><td><div></div></td></tr><tr><td style="font-weight:bold;vertical-align:top;">secure</td><td style="vertical-align:top;">:</td><td><div></div></td></tr><tr><td style="font-weight:bold;vertical-align:top;">version</td><td style="vertical-align:top;">:</td><td><div></div></td></tr></table></div></td></tr><tr><td style="font-weight:bold;vertical-align:top;">sessionid</td><td style="vertical-align:top;">:</td><td><div>dttcawekok611odg1uhqp6f8o9hxwclz<table><tr><td style="font-weight:bold;vertical-align:top;">comment</td><td style="vertical-align:top;">:</td><td><div></div></td></tr><tr><td style="font-weight:bold;vertical-align:top;">domain</td><td style="vertical-align:top;">:</td><td><div></div></td></tr><tr><td style="font-weight:bold;vertical-align:top;">expires</td><td style="vertical-align:top;">:</td><td><div></div></td></tr><tr><td style="font-weight:bold;vertical-align:top;">httponly</td><td style="vertical-align:top;">:</td><td><div></div></td></tr><tr><td style="font-weight:bold;vertical-align:top;">max-age</td><td style="vertical-align:top;">:</td><td><div></div></td></tr><tr><td style="font-weight:bold;vertical-align:top;">path</td><td style="vertical-align:top;">:</td><td><div></div></td></tr><tr><td style="font-weight:bold;vertical-align:top;">secure</td><td style="vertical-align:top;">:</td><td><div></div></td></tr><tr><td style="font-weight:bold;vertical-align:top;">version</td><td style="vertical-align:top;">:</td><td><div></div></td></tr></table></div></td></tr></table></div></td></tr><tr><td style="font-weight:bold;vertical-align:top;">env</td><td style="vertical-align:top;">:</td><td><div><table><tr><td style="font-weight:bold;vertical-align:top;">CONTENT_LENGTH</td><td style="vertical-align:top;">:</td><td><div></div></td></tr><tr><td style="font-weight:bold;vertical-align:top;">CONTENT_TYPE</td><td style="vertical-align:top;">:</td><td><div></div></td></tr><tr><td style="font-weight:bold;vertical-align:top;">DOCUMENT_ROOT</td><td style="vertical-align:top;">:</td><td><div>/usr/local/openresty/nginx/html</div></td></tr><tr><td style="font-weight:bold;vertical-align:top;">HTTPS</td><td style="vertical-align:top;">:</td><td><div>on</div></td></tr><tr><td style="font-weight:bold;vertical-align:top;">HTTP_ACCEPT</td><td style="vertical-align:top;">:</td><td><div>text/html,application/xhtml+xml,application/xml;q=0.9,image/webp,*/*;q=0.8</div></td></tr><tr><td style="font-weight:bold;vertical-align:top;">HTTP_ACCEPT_ENCODING</td><td style="vertical-align:top;">:</td><td><div>gzip, deflate</div></td></tr><tr><td style="font-weight:bold;vertical-align:top;">HTTP_ACCEPT_LANGUAGE</td><td style="vertical-align:top;">:</td><td><div>en-US,en;q=0.8,zh-CN;q=0.6,zh;q=0.4</div></td></tr><tr><td style="font-weight:bold;vertical-align:top;">HTTP_CACHE_CONTROL</td><td style="vertical-align:top;">:</td><td><div>max-age=0</div></td></tr><tr><td style="font-weight:bold;vertical-align:top;">HTTP_CONNECTION</td><td style="vertical-align:top;">:</td><td><div>close</div></td></tr><tr><td style="font-weight:bold;vertical-align:top;">HTTP_COOKIE</td><td style="vertical-align:top;">:</td><td><div>sessionid=dttcawekok611odg1uhqp6f8o9hxwclz; session_id_smartblog=104.32.222.90-a544b220-362f-4c7b-8986-6517c53e7163; session_id_admin=104.32.222.90-417406ec-cc38-4591-b15c-175f2b8a025b; session_id_cms=104.32.222.90-34914f4f-1575-437a-ba28-a78ddae5cde7</div></td></tr><tr><td style="font-weight:bold;vertical-align:top;">HTTP_HOST</td><td style="vertical-align:top;">:</td><td><div>jerryliu0228.pythonanywhere.com</div></td></tr><tr><td style="font-weight:bold;vertical-align:top;">HTTP_UPGRADE_INSECURE_REQUESTS</td><td style="vertical-align:top;">:</td><td><div>1</div></td></tr><tr><td style="font-weight:bold;vertical-align:top;">HTTP_USER_AGENT</td><td style="vertical-align:top;">:</td><td><div>Mozilla/5.0 (Windows NT 6.1; WOW64) AppleWebKit/537.36 (KHTML, like Gecko) Chrome/49.0.2623.110 Safari/537.36</div></td></tr><tr><td style="font-weight:bold;vertical-align:top;">HTTP_X_FORWARDED_FOR</td><td style="vertical-align:top;">:</td><td><div>104.32.222.90</div></td></tr><tr><td style="font-weight:bold;vertical-align:top;">HTTP_X_REAL_IP</td><td style="vertical-align:top;">:</td><td><div>104.32.222.90</div></td></tr><tr><td style="font-weight:bold;vertical-align:top;">PATH_INFO</td><td style="vertical-align:top;">:</td><td><div>/SmartBlog/</div></td></tr><tr><td style="font-weight:bold;vertical-align:top;">QUERY_STRING</td><td style="vertical-align:top;">:</td><td><div></div></td></tr><tr><td style="font-weight:bold;vertical-align:top;">REMOTE_ADDR</td><td style="vertical-align:top;">:</td><td><div>10.169.53.174</div></td></tr><tr><td style="font-weight:bold;vertical-align:top;">REMOTE_PORT</td><td style="vertical-align:top;">:</td><td><div>44409</div></td></tr><tr><td style="font-weight:bold;vertical-align:top;">REQUEST_METHOD</td><td style="vertical-align:top;">:</td><td><div>GET</div></td></tr><tr><td style="font-weight:bold;vertical-align:top;">REQUEST_URI</td><td style="vertical-align:top;">:</td><td><div>/SmartBlog/</div></td></tr><tr><td style="font-weight:bold;vertical-align:top;">SCRIPT_NAME</td><td style="vertical-align:top;">:</td><td><div></div></td></tr><tr><td style="font-weight:bold;vertical-align:top;">SERVER_NAME</td><td style="vertical-align:top;">:</td><td><div>jerryliu0228.pythonanywhere.com</div></td></tr><tr><td style="font-weight:bold;vertical-align:top;">SERVER_PORT</td><td style="vertical-align:top;">:</td><td><div>443</div></td></tr><tr><td style="font-weight:bold;vertical-align:top;">SERVER_PROTOCOL</td><td style="vertical-align:top;">:</td><td><div>HTTP/1.1</div></td></tr><tr><td style="font-weight:bold;vertical-align:top;">app_folders</td><td style="vertical-align:top;">:</td><td><div>set([&#x27;/home/jerryliu0228/web2py/applications/CMS/&#x27;, &#x27;/home/jerryliu0228/web2py/applications/SmartBlog/&#x27;, &#x27;/home/jerryliu0228/web2py/applications/dinna/&#x27;, &#x27;/home/jerryliu0228/web2py/applications/admin/&#x27;])</div></td></tr><tr><td style="font-weight:bold;vertical-align:top;">applications_parent</td><td style="vertical-align:top;">:</td><td><div>/home/jerryliu0228/web2py</div></td></tr><tr><td style="font-weight:bold;vertical-align:top;">content_length</td><td style="vertical-align:top;">:</td><td><div></div></td></tr><tr><td style="font-weight:bold;vertical-align:top;">content_type</td><td style="vertical-align:top;">:</td><td><div></div></td></tr><tr><td style="font-weight:bold;vertical-align:top;">db_sessions</td><td style="vertical-align:top;">:</td><td><div>set([])</div></td></tr><tr><td style="font-weight:bold;vertical-align:top;">debugging</td><td style="vertical-align:top;">:</td><td><div>True</div></td></tr><tr><td style="font-weight:bold;vertical-align:top;">document_root</td><td style="vertical-align:top;">:</td><td><div>/usr/local/openresty/nginx/html</div></td></tr><tr><td style="font-weight:bold;vertical-align:top;">gluon_parent</td><td style="vertical-align:top;">:</td><td><div>/home/jerryliu0228/web2py</div></td></tr><tr><td style="font-weight:bold;vertical-align:top;">http_accept</td><td style="vertical-align:top;">:</td><td><div>text/html,application/xhtml+xml,application/xml;q=0.9,image/webp,*/*;q=0.8</div></td></tr><tr><td style="font-weight:bold;vertical-align:top;">http_accept_encoding</td><td style="vertical-align:top;">:</td><td><div>gzip, deflate</div></td></tr><tr><td style="font-weight:bold;vertical-align:top;">http_accept_language</td><td style="vertical-align:top;">:</td><td><div>en-US,en;q=0.8,zh-CN;q=0.6,zh;q=0.4</div></td></tr><tr><td style="font-weight:bold;vertical-align:top;">http_cache_control</td><td style="vertical-align:top;">:</td><td><div>max-age=0</div></td></tr><tr><td style="font-weight:bold;vertical-align:top;">http_connection</td><td style="vertical-align:top;">:</td><td><div>close</div></td></tr><tr><td style="font-weight:bold;vertical-align:top;">http_cookie</td><td style="vertical-align:top;">:</td><td><div>sessionid=dttcawekok611odg1uhqp6f8o9hxwclz; session_id_smartblog=104.32.222.90-a544b220-362f-4c7b-8986-6517c53e7163; session_id_admin=104.32.222.90-417406ec-cc38-4591-b15c-175f2b8a025b; session_id_cms=104.32.222.90-34914f4f-1575-437a-ba28-a78ddae5cde7</div></td></tr><tr><td style="font-weight:bold;vertical-align:top;">http_host</td><td style="vertical-align:top;">:</td><td><div>jerryliu0228.pythonanywhere.com</div></td></tr><tr><td style="font-weight:bold;vertical-align:top;">http_upgrade_insecure_requests</td><td style="vertical-align:top;">:</td><td><div>1</div></td></tr><tr><td style="font-weight:bold;vertical-align:top;">http_user_agent</td><td style="vertical-align:top;">:</td><td><div>Mozilla/5.0 (Windows NT 6.1; WOW64) AppleWebKit/537.36 (KHTML, like Gecko) Chrome/49.0.2623.110 Safari/537.36</div></td></tr><tr><td style="font-weight:bold;vertical-align:top;">http_x_forwarded_for</td><td style="vertical-align:top;">:</td><td><div>104.32.222.90</div></td></tr><tr><td style="font-weight:bold;vertical-align:top;">http_x_real_ip</td><td style="vertical-align:top;">:</td><td><div>104.32.222.90</div></td></tr><tr><td style="font-weight:bold;vertical-align:top;">https</td><td style="vertical-align:top;">:</td><td><div>on</div></td></tr><tr><td style="font-weight:bold;vertical-align:top;">is_jython</td><td style="vertical-align:top;">:</td><td><div>False</div></td></tr><tr><td style="font-weight:bold;vertical-align:top;">is_pypy</td><td style="vertical-align:top;">:</td><td><div>False</div></td></tr><tr><td style="font-weight:bold;vertical-align:top;">is_source</td><td style="vertical-align:top;">:</td><td><div>True</div></td></tr><tr><td style="font-weight:bold;vertical-align:top;">local_hosts</td><td style="vertical-align:top;">:</td><td><div><table><tr><td><div>::ffff:127.0.0.1</div></td></tr><tr><td><div>::1</div></td></tr><tr><td><div>50.19.109.98</div></td></tr><tr><td><div>127.0.0.1</div></td></tr><tr><td><div>jerryliu0228.pythonanywhere.com</div></td></tr><tr><td><div>glenn-liveweb8</div></td></tr><tr><td><div>localhost</div></td></tr></table></div></td></tr><tr><td style="font-weight:bold;vertical-align:top;">path_info</td><td style="vertical-align:top;">:</td><td><div>/SmartBlog/</div></td></tr><tr><td style="font-weight:bold;vertical-align:top;">query_string</td><td style="vertical-align:top;">:</td><td><div></div></td></tr><tr><td style="font-weight:bold;vertical-align:top;">remote_addr</td><td style="vertical-align:top;">:</td><td><div>10.169.53.174</div></td></tr><tr><td style="font-weight:bold;vertical-align:top;">remote_port</td><td style="vertical-align:top;">:</td><td><div>44409</div></td></tr><tr><td style="font-weight:bold;vertical-align:top;">request_method</td><td style="vertical-align:top;">:</td><td><div>GET</div></td></tr><tr><td style="font-weight:bold;vertical-align:top;">request_uri</td><td style="vertical-align:top;">:</td><td><div>/SmartBlog/</div></td></tr><tr><td style="font-weight:bold;vertical-align:top;">script_name</td><td style="vertical-align:top;">:</td><td><div></div></td></tr><tr><td style="font-weight:bold;vertical-align:top;">server_name</td><td style="vertical-align:top;">:</td><td><div>jerryliu0228.pythonanywhere.com</div></td></tr><tr><td style="font-weight:bold;vertical-align:top;">server_port</td><td style="vertical-align:top;">:</td><td><div>443</div></td></tr><tr><td style="font-weight:bold;vertical-align:top;">server_protocol</td><td style="vertical-align:top;">:</td><td><div>HTTP/1.1</div></td></tr><tr><td style="font-weight:bold;vertical-align:top;">uwsgi.node</td><td style="vertical-align:top;">:</td><td><div>glenn-liveweb8</div></td></tr><tr><td style="font-weight:bold;vertical-align:top;">uwsgi.version</td><td style="vertical-align:top;">:</td><td><div>2.0.5.1</div></td></tr><tr><td style="font-weight:bold;vertical-align:top;">uwsgi_node</td><td style="vertical-align:top;">:</td><td><div>glenn-liveweb8</div></td></tr><tr><td style="font-weight:bold;vertical-align:top;">uwsgi_version</td><td style="vertical-align:top;">:</td><td><div>2.0.5.1</div></td></tr><tr><td style="font-weight:bold;vertical-align:top;">web2py_path</td><td style="vertical-align:top;">:</td><td><div>/home/jerryliu0228/web2py</div></td></tr><tr><td style="font-weight:bold;vertical-align:top;">web2py_version</td><td style="vertical-align:top;">:</td><td><div>2.9.12-stable+timestamp.2015.01.17.06.11.03</div></td></tr><tr><td style="font-weight:bold;vertical-align:top;">wsgi.errors</td><td style="vertical-align:top;">:</td><td><div>&lt;uwsgi_file__bin_user_wsgi_wrapper.ErrorLogFile object at 0x7fe9d6c5c310&gt;</div></td></tr><tr><td style="font-weight:bold;vertical-align:top;">wsgi.file_wrapper</td><td style="vertical-align:top;">:</td><td><div>&lt;built-in function uwsgi_sendfile&gt;</div></td></tr><tr><td style="font-weight:bold;vertical-align:top;">wsgi.input</td><td style="vertical-align:top;">:</td><td><div>&lt;uwsgi._Input object at 0x7fe9e0d7ec48&gt;</div></td></tr><tr><td style="font-weight:bold;vertical-align:top;">wsgi.multiprocess</td><td style="vertical-align:top;">:</td><td><div>True</div></td></tr><tr><td style="font-weight:bold;vertical-align:top;">wsgi.multithread</td><td style="vertical-align:top;">:</td><td><div>False</div></td></tr><tr><td style="font-weight:bold;vertical-align:top;">wsgi.run_once</td><td style="vertical-align:top;">:</td><td><div>False</div></td></tr><tr><td style="font-weight:bold;vertical-align:top;">wsgi.url_scheme</td><td style="vertical-align:top;">:</td><td><div>https</div></td></tr><tr><td style="font-weight:bold;vertical-align:top;">wsgi.version</td><td style="vertical-align:top;">:</td><td><div><table><tr><td><div>1</div></td></tr><tr><td><div>0</div></td></tr></table></div></td></tr><tr><td style="font-weight:bold;vertical-align:top;">wsgi_errors</td><td style="vertical-align:top;">:</td><td><div>&lt;uwsgi_file__bin_user_wsgi_wrapper.ErrorLogFile object at 0x7fe9d6c5c310&gt;</div></td></tr><tr><td style="font-weight:bold;vertical-align:top;">wsgi_file_wrapper</td><td style="vertical-align:top;">:</td><td><div>&lt;built-in function uwsgi_sendfile&gt;</div></td></tr><tr><td style="font-weight:bold;vertical-align:top;">wsgi_input</td><td style="vertical-align:top;">:</td><td><div>&lt;uwsgi._Input object at 0x7fe9e0d7ec48&gt;</div></td></tr><tr><td style="font-weight:bold;vertical-align:top;">wsgi_multiprocess</td><td style="vertical-align:top;">:</td><td><div>True</div></td></tr><tr><td style="font-weight:bold;vertical-align:top;">wsgi_multithread</td><td style="vertical-align:top;">:</td><td><div>False</div></td></tr><tr><td style="font-weight:bold;vertical-align:top;">wsgi_run_once</td><td style="vertical-align:top;">:</td><td><div>False</div></td></tr><tr><td style="font-weight:bold;vertical-align:top;">wsgi_url_scheme</td><td style="vertical-align:top;">:</td><td><div>https</div></td></tr><tr><td style="font-weight:bold;vertical-align:top;">wsgi_version</td><td style="vertical-align:top;">:</td><td><div><table><tr><td><div>1</div></td></tr><tr><td><div>0</div></td></tr></table></div></td></tr></table></div></td></tr><tr><td style="font-weight:bold;vertical-align:top;">extension</td><td style="vertical-align:top;">:</td><td><div>html</div></td></tr><tr><td style="font-weight:bold;vertical-align:top;">folder</td><td style="vertical-align:top;">:</td><td><div>/home/jerryliu0228/web2py/applications/SmartBlog/</div></td></tr><tr><td style="font-weight:bold;vertical-align:top;">function</td><td style="vertical-align:top;">:</td><td><div>index</div></td></tr><tr><td style="font-weight:bold;vertical-align:top;">global_settings</td><td style="vertical-align:top;">:</td><td><div><table><tr><td style="font-weight:bold;vertical-align:top;">app_folders</td><td style="vertical-align:top;">:</td><td><div>set([&#x27;/home/jerryliu0228/web2py/applications/CMS/&#x27;, &#x27;/home/jerryliu0228/web2py/applications/SmartBlog/&#x27;, &#x27;/home/jerryliu0228/web2py/applications/dinna/&#x27;, &#x27;/home/jerryliu0228/web2py/applications/admin/&#x27;])</div></td></tr><tr><td style="font-weight:bold;vertical-align:top;">applications_parent</td><td style="vertical-align:top;">:</td><td><div>/home/jerryliu0228/web2py</div></td></tr><tr><td style="font-weight:bold;vertical-align:top;">db_sessions</td><td style="vertical-align:top;">:</td><td><div>set([])</div></td></tr><tr><td style="font-weight:bold;vertical-align:top;">debugging</td><td style="vertical-align:top;">:</td><td><div>True</div></td></tr><tr><td style="font-weight:bold;vertical-align:top;">gluon_parent</td><td style="vertical-align:top;">:</td><td><div>/home/jerryliu0228/web2py</div></td></tr><tr><td style="font-weight:bold;vertical-align:top;">is_jython</td><td style="vertical-align:top;">:</td><td><div>False</div></td></tr><tr><td style="font-weight:bold;vertical-align:top;">is_pypy</td><td style="vertical-align:top;">:</td><td><div>False</div></td></tr><tr><td style="font-weight:bold;vertical-align:top;">is_source</td><td style="vertical-align:top;">:</td><td><div>True</div></td></tr><tr><td style="font-weight:bold;vertical-align:top;">local_hosts</td><td style="vertical-align:top;">:</td><td><div><table><tr><td><div>::ffff:127.0.0.1</div></td></tr><tr><td><div>::1</div></td></tr><tr><td><div>50.19.109.98</div></td></tr><tr><td><div>127.0.0.1</div></td></tr><tr><td><div>jerryliu0228.pythonanywhere.com</div></td></tr><tr><td><div>glenn-liveweb8</div></td></tr><tr><td><div>localhost</div></td></tr></table></div></td></tr><tr><td style="font-weight:bold;vertical-align:top;">web2py_version</td><td style="vertical-align:top;">:</td><td><div>2.9.12-stable+timestamp.2015.01.17.06.11.03</div></td></tr></table></div></td></tr><tr><td style="font-weight:bold;vertical-align:top;">is_https</td><td style="vertical-align:top;">:</td><td><div>True</div></td></tr><tr><td style="font-weight:bold;vertical-align:top;">is_local</td><td style="vertical-align:top;">:</td><td><div>False</div></td></tr><tr><td style="font-weight:bold;vertical-align:top;">is_restful</td><td style="vertical-align:top;">:</td><td><div>False</div></td></tr><tr><td style="font-weight:bold;vertical-align:top;">is_sheduler</td><td style="vertical-align:top;">:</td><td><div>None</div></td></tr><tr><td style="font-weight:bold;vertical-align:top;">is_shell</td><td style="vertical-align:top;">:</td><td><div>None</div></td></tr><tr><td style="font-weight:bold;vertical-align:top;">now</td><td style="vertical-align:top;">:</td><td><div>datetime.datetime(2016, 4, 11, 1, 51, 55, 263059)</div></td></tr><tr><td style="font-weight:bold;vertical-align:top;">raw_args</td><td style="vertical-align:top;">:</td><td><div></div></td></tr><tr><td style="font-weight:bold;vertical-align:top;">raw_extension</td><td style="vertical-align:top;">:</td><td><div>None</div></td></tr><tr><td style="font-weight:bold;vertical-align:top;">url</td><td style="vertical-align:top;">:</td><td><div>/SmartBlog/</div></td></tr><tr><td style="font-weight:bold;vertical-align:top;">utcnow</td><td style="vertical-align:top;">:</td><td><div>datetime.datetime(2016, 4, 11, 1, 51, 55, 263075)</div></td></tr><tr><td style="font-weight:bold;vertical-align:top;">uuid</td><td style="vertical-align:top;">:</td><td><div>SmartBlog/104.32.222.90.2016-04-11.01-51-55.063bc86f-9d89-4aaa-9959-2c17790bf72e</div></td></tr><tr><td style="font-weight:bold;vertical-align:top;">wsgi</td><td style="vertical-align:top;">:</td><td><div>&lt;gluon.main.LazyWSGI object at 0x7fe9d6d40b90&gt;</div></td></tr></table></div>'
tRp62
sS'frames'
p63
(lp64
(dp65
S'file'
p66
S'/home/jerryliu0228/web2py/gluon/restricted.py'
p67
sS'dump'
p68
(dp69
S'environment'
p70
S"{'A': <class 'gluon.html.A'>, 'ADMIN_GROUP': 'admin', 'ANY_OF': <class 'gluon.validators.ANY_OF'>, 'ASSIGNJS': <function ASSIGNJS>, 'AUTUOR_GROUP': 'author', 'Auth': <class 'gluon.tools.Auth'>, 'B': <class 'gluon.html.B'>, 'BEAUTIFY': <class 'gluon.html.BEAUTIFY'>, 'BODY': <class 'gluon.html.BODY'>, 'BR': <class 'gluon.html.BR'>, ...}"
p71
sS'ccode'
p72
S'<code object <module> at 0x7fe9c50ebeb0, file "/...tions/SmartBlog/controllers/default.py", line 12>'
p73
ssS'lnum'
p74
I224
sS'lines'
p75
(dp76
I224
S'        exec ccode in environment'
p77
sI225
S'    except HTTP:'
p78
sI226
S'        raise'
p79
sI227
S'    except RestrictedError:'
p80
sI228
S'        # do not encapsulate (obfuscate) the original RestrictedError'
p81
sI219
S'    try:'
p82
sI220
S'        if isinstance(code, types.CodeType):'
p83
sI221
S'            ccode = code'
p84
sI222
S'        else:'
p85
sI223
S'            ccode = compile2(code, layer)'
p86
ssS'call'
p87
S"(code='# -*- coding: utf-8 -*-\\n# this file is released ... tz_name\\n\\nresponse._vars=response._caller(index)\\n', environment={'A': <class 'gluon.html.A'>, 'ADMIN_GROUP': 'admin', 'ANY_OF': <class 'gluon.validators.ANY_OF'>, 'ASSIGNJS': <function ASSIGNJS>, 'AUTUOR_GROUP': 'author', 'Auth': <class 'gluon.tools.Auth'>, 'B': <class 'gluon.html.B'>, 'BEAUTIFY': <class 'gluon.html.BEAUTIFY'>, 'BODY': <class 'gluon.html.BODY'>, 'BR': <class 'gluon.html.BR'>, ...}, layer='/home/jerryliu0228/web2py/applications/SmartBlog/controllers/default.py')"
p88
sS'func'
p89
S'restricted'
p90
sa(dp91
g66
S'/home/jerryliu0228/web2py/applications/SmartBlog/controllers/default.py'
p92
sg68
(dp93
sg74
I97
sg75
(dp94
I86
S"        '<tablename>': {'GET':{},'POST':{},'PUT':{},'DELETE':{}},"
p95
sI87
S'        }'
p96
sI88
S'    return Collection(db).process(request,response,rules)'
p97
sI89
S''
sI90
S'#Ajax call to set the timezone information for the session.'
p98
sI91
S'def set_timezone():'
p99
sI92
S'    tz_name = request.vars.name'
p100
sI93
S'    from pytz import all_timezones_set'
p101
sI94
S'    if tz_name in all_timezones_set:'
p102
sI95
S'        session.user_timezone = tz_name'
p103
ssg87
S'()'
p104
sg89
S'<module>'
p105
sa(dp106
g66
S'/home/jerryliu0228/web2py/gluon/globals.py'
p107
sg68
(dp108
S'self'
p109
S'undefined'
p110
sS'f'
S'<function index>'
p111
ssg74
I393
sg75
(dp112
I388
S"        self.flash = ''            # used by the default view layout"
p113
sI389
S'        self.meta = Storage()      # used by web2py_ajax.html'
p114
sI390
S'        self.menu = []             # used by the default view layout'
p115
sI391
S'        self.files = []            # used by web2py_ajax.html'
p116
sI392
S'        self._vars = None'
p117
sI393
S'        self._caller = lambda f: f()'
p118
sI394
S'        self._view_environment = None'
p119
sI395
S'        self._custom_commit = None'
p120
sI396
S'        self._custom_rollback = None'
p121
sI397
S"        self.generic_patterns = ['*']"
p122
ssg87
S'(f=<function index>)'
p123
sg89
S'<lambda>'
p124
sa(dp125
g66
S'/home/jerryliu0228/web2py/applications/SmartBlog/controllers/default.py'
p126
sg68
(dp127
S'orderby'
p128
g110
sS'post_tag_rels'
p129
g110
sS'db.post_tag'
p130
S'<Table post_tag (id,post,tag)>'
p131
sS'post_id_list'
p132
S'[3396L, 3397L, 3378L, 3379L, 3380L, 3381L, 3382L, 3383L, 3384L, 3385L]'
p133
sS').select'
p134
g110
sS'db.post_tag.post.belongs'
p135
S'<bound method Field.belongs of <gluon.dal.objects.Field object>>'
p136
sS'db.post_tag.ALL'
p137
S'<gluon.dal.helpers.classes.SQLALL object>'
p138
sS'global db'
p139
S'<DAL uri="sqlite://storage.sqlite">'
p140
sS'db.post_tag.post'
p141
S'<gluon.dal.objects.Field object>'
p142
ssg74
I19
sg75
(dp143
I14
S'    page = 1'
p144
sI15
S'    posts = db().select(db.post.ALL, limitby=((page-1) * max_results, page * max_results), orderby = "post.post_datetime DESC")'
p145
sI16
S''
sI17
S'    post_id_list = [post.id for post in posts]'
p146
sI18
S''
sI19
S'    post_tag_rels = db(db.post_tag.post.belongs(post_id_list)).select(db.post_tag.ALL, orderby = "db.post_tag.post DESC|db.post_tag.tag DESC")'
p147
sI20
S''
sI21
S'    # response variables:'
p148
sI22
S'    # posts label_posted_by  label_tags label_read_more label_comments'
p149
sI23
S''
ssg87
S'()'
p150
sg89
S'index'
p151
sa(dp152
g66
S'/home/jerryliu0228/web2py/gluon/dal/objects.py'
p153
sg68
(dp154
S'self.query'
p155
S'<Query (post_tag.post IN (3396,3397,3378,3379,3380,3381,3382,3383,3384,3385))>'
p156
sS'adapter.select'
p157
S'<bound method SQLiteAdapter.select of <gluon.dal.adapters.sqlite.SQLiteAdapter object>>'
p158
sS'fields'
p159
S'[<gluon.dal.objects.Field object>, <gluon.dal.objects.Field object>, <gluon.dal.objects.Field object>]'
p160
sS'adapter'
p161
S'<gluon.dal.adapters.sqlite.SQLiteAdapter object>'
p162
sS'attributes'
p163
S"{'orderby': 'db.post_tag.post DESC|db.post_tag.tag DESC'}"
p164
sS'self'
p165
S'<Set (post_tag.post IN (3396,3397,3378,3379,3380,3381,3382,3383,3384,3385))>'
p166
ssg74
I2066
sg75
(dp167
I2061
S"                                    attributes.get('join',None),"
p168
sI2062
S"                                    attributes.get('left',None),"
p169
sI2063
S"                                    attributes.get('orderby',None),"
p170
sI2064
S"                                    attributes.get('groupby',None))"
p171
sI2065
S'        fields = adapter.expand_all(fields, tablenames)'
p172
sI2066
S'        return adapter.select(self.query,fields,attributes)'
p173
sI2067
S''
sI2068
S'    def nested_select(self,*fields,**attributes):'
p174
sI2069
S'        return Expression(self.db,self._select(*fields,**attributes))'
p175
sI2070
S''
ssg87
S"(self=<Set (post_tag.post IN (3396,3397,3378,3379,3380,3381,3382,3383,3384,3385))>, *fields=[<gluon.dal.objects.Field object>, <gluon.dal.objects.Field object>, <gluon.dal.objects.Field object>], **attributes={'orderby': 'db.post_tag.post DESC|db.post_tag.tag DESC'})"
p176
sg89
S'select'
p177
sa(dp178
g66
S'/home/jerryliu0228/web2py/gluon/dal/adapters/sqlite.py'
p179
sg68
(dp180
S'fields'
p181
S'[<gluon.dal.objects.Field object>, <gluon.dal.objects.Field object>, <gluon.dal.objects.Field object>]'
p182
sS'self'
p183
S'<gluon.dal.adapters.sqlite.SQLiteAdapter object>'
p184
sS').select'
p185
S'<bound method SQLiteAdapter.select of <gluon.dal.adapters.sqlite.SQLiteAdapter object>>'
p186
sS'attributes'
p187
S"{'orderby': 'db.post_tag.post DESC|db.post_tag.tag DESC'}"
p188
sS'global SQLiteAdapter'
p189
S"<class 'gluon.dal.adapters.sqlite.SQLiteAdapter'>"
p190
sS'query'
p191
S'<Query (post_tag.post IN (3396,3397,3378,3379,3380,3381,3382,3383,3384,3385))>'
p192
sS'builtinsuper'
p193
S"<type 'super'>"
p194
ssg74
I125
sg75
(dp195
I128
S'SPATIALLIBS = {'
p196
sI129
S"    'Windows':'libspatialite',"
p197
sI120
S'        Note that the entire database, rather than one record, is locked'
p198
sI121
S'        (it will be locked eventually anyway by the following UPDATE).'
p199
sI122
S'        """'
p200
sI123
S"        if attributes.get('for_update', False) and not 'cache' in attributes:"
p201
sI124
S"            self.execute('BEGIN IMMEDIATE TRANSACTION;')"
p202
sI125
S'        return super(SQLiteAdapter, self).select(query, fields, attributes)'
p203
sI126
S''
sI127
S''
ssg87
S"(self=<gluon.dal.adapters.sqlite.SQLiteAdapter object>, query=<Query (post_tag.post IN (3396,3397,3378,3379,3380,3381,3382,3383,3384,3385))>, fields=[<gluon.dal.objects.Field object>, <gluon.dal.objects.Field object>, <gluon.dal.objects.Field object>], attributes={'orderby': 'db.post_tag.post DESC|db.post_tag.tag DESC'})"
p204
sg89
g177
sa(dp205
g66
S'/home/jerryliu0228/web2py/gluon/dal/adapters/base.py'
p206
sg68
(dp207
S'fields'
p208
S'[<gluon.dal.objects.Field object>, <gluon.dal.objects.Field object>, <gluon.dal.objects.Field object>]'
p209
sS'self'
p210
S'<gluon.dal.adapters.sqlite.SQLiteAdapter object>'
p211
sS'attributes'
p212
S"{'orderby': 'db.post_tag.post DESC|db.post_tag.tag DESC'}"
p213
sS'self._select_aux'
p214
S'<bound method SQLiteAdapter._select_aux of <gluon.dal.adapters.sqlite.SQLiteAdapter object>>'
p215
sS'sql'
p216
S"'SELECT  post_tag.id, post_tag.post, post_tag.tag...ER BY db.post_tag.post DESC|db.post_tag.tag DESC;'"
p217
ssg74
I1232
sg75
(dp218
I1227
S'            return cache_model('
p219
sI1228
S'                key,'
p220
sI1229
S'                lambda self=self,args=args:self._select_aux(*args),'
p221
sI1230
S'                time_expire)'
p222
sI1231
S'        else:'
p223
sI1232
S'            return self._select_aux(sql,fields,attributes)'
p224
sI1233
S''
sI1234
S'    def _count(self, query, distinct=None):'
p225
sI1235
S'        tablenames = self.tables(query)'
p226
sI1236
S'        if query:'
p227
ssg87
S"(self=<gluon.dal.adapters.sqlite.SQLiteAdapter object>, query=<Query (post_tag.post IN (3396,3397,3378,3379,3380,3381,3382,3383,3384,3385))>, fields=[<gluon.dal.objects.Field object>, <gluon.dal.objects.Field object>, <gluon.dal.objects.Field object>], attributes={'orderby': 'db.post_tag.post DESC|db.post_tag.tag DESC'})"
p228
sg89
g177
sa(dp229
g66
S'/home/jerryliu0228/web2py/gluon/dal/adapters/base.py'
p230
sg68
(dp231
S'self'
p232
S'<gluon.dal.adapters.sqlite.SQLiteAdapter object>'
p233
sS'self.execute'
p234
S'<bound method SQLiteAdapter.execute of <gluon.dal.adapters.sqlite.SQLiteAdapter object>>'
p235
sS'sql'
p236
S"'SELECT  post_tag.id, post_tag.post, post_tag.tag...ER BY db.post_tag.post DESC|db.post_tag.tag DESC;'"
p237
ssg74
I1197
sg75
(dp238
I1192
S''
sI1193
S'    def _select_aux(self,sql,fields,attributes):'
p239
sI1194
S'        args_get = attributes.get'
p240
sI1195
S"        cache = args_get('cache',None)"
p241
sI1196
S'        if not cache:'
p242
sI1197
S'            self.execute(sql)'
p243
sI1198
S'            rows = self._fetchall()'
p244
sI1199
S'        else:'
p245
sI1200
S'            (cache_model, time_expire) = cache'
p246
sI1201
S"            key = self.uri + '/' + sql + '/rows'"
p247
ssg87
S"(self=<gluon.dal.adapters.sqlite.SQLiteAdapter object>, sql='SELECT  post_tag.id, post_tag.post, post_tag.tag...ER BY db.post_tag.post DESC|db.post_tag.tag DESC;', fields=[<gluon.dal.objects.Field object>, <gluon.dal.objects.Field object>, <gluon.dal.objects.Field object>], attributes={'orderby': 'db.post_tag.post DESC|db.post_tag.tag DESC'})"
p248
sg89
S'_select_aux'
p249
sa(dp250
g66
S'/home/jerryliu0228/web2py/gluon/dal/adapters/base.py'
p251
sg68
(dp252
S'a'
S"('SELECT  post_tag.id, post_tag.post, post_tag.tag...ER BY db.post_tag.post DESC|db.post_tag.tag DESC;',)"
p253
sS'self'
p254
S'<gluon.dal.adapters.sqlite.SQLiteAdapter object>'
p255
sS'b'
g21
sS'self.log_execute'
p256
S'<bound method SQLiteAdapter.log_execute of <gluon.dal.adapters.sqlite.SQLiteAdapter object>>'
p257
ssg74
I1319
sg75
(dp258
I1314
S'        self.db._timings.append((command,time.time()-t0))'
p259
sI1315
S'        del self.db._timings[:-TIMINGSSIZE]'
p260
sI1316
S'        return ret'
p261
sI1317
S''
sI1318
S'    def execute(self, *a, **b):'
p262
sI1319
S'        return self.log_execute(*a, **b)'
p263
sI1320
S''
sI1321
S'    def represent(self, obj, fieldtype):'
p264
sI1322
S'        field_is_type = fieldtype.startswith'
p265
sI1323
S'        if isinstance(obj, CALLABLETYPES):'
p266
ssg87
S"(self=<gluon.dal.adapters.sqlite.SQLiteAdapter object>, *a=('SELECT  post_tag.id, post_tag.post, post_tag.tag...ER BY db.post_tag.post DESC|db.post_tag.tag DESC;',), **b={})"
p267
sg89
S'execute'
p268
sa(dp269
g66
S'/home/jerryliu0228/web2py/gluon/dal/adapters/base.py'
p270
sg68
(dp271
S'a'
S"('SELECT  post_tag.id, post_tag.post, post_tag.tag...ER BY db.post_tag.post DESC|db.post_tag.tag DESC;',)"
p272
sS'b'
g21
sS'self'
p273
S'<gluon.dal.adapters.sqlite.SQLiteAdapter object>'
p274
sS'ret'
p275
g110
sS'self.cursor'
p276
S'<sqlite3.Cursor object>'
p277
sS'command'
p278
S"'SELECT  post_tag.id, post_tag.post, post_tag.tag...ER BY db.post_tag.post DESC|db.post_tag.tag DESC;'"
p279
sS'self.cursor.execute'
p280
S'<built-in method execute of sqlite3.Cursor object>'
p281
ssg74
I1313
sg75
(dp282
I1312
S'        t0 = time.time()'
p283
sI1313
S'        ret = self.cursor.execute(command, *a[1:], **b)'
p284
sI1314
S'        self.db._timings.append((command,time.time()-t0))'
p285
sI1315
S'        del self.db._timings[:-TIMINGSSIZE]'
p286
sI1316
S'        return ret'
p287
sI1317
S''
sI1308
S'            command = self.filter_sql_command(command)'
p288
sI1309
S'        if self.db._debug:'
p289
sI1310
S"            LOGGER.debug('SQL: %s' % command)"
p290
sI1311
S'        self.db._lastsql = command'
p291
ssg87
S"(self=<gluon.dal.adapters.sqlite.SQLiteAdapter object>, *a=('SELECT  post_tag.id, post_tag.post, post_tag.tag...ER BY db.post_tag.post DESC|db.post_tag.tag DESC;',), **b={})"
p292
sg89
S'log_execute'
p293
sasS'pyver'
p294
S'Python 2.7.6: /usr/local/bin/uwsgi (prefix: /usr)'
p295
sS'session'
p296
g61
(S'sO\x02\x00\x00<div><table><tr><td style="font-weight:bold;vertical-align:top;">flash</td><td style="vertical-align:top;">:</td><td><div>None</div></td></tr><tr><td style="font-weight:bold;vertical-align:top;">last_orderby</td><td style="vertical-align:top;">:</td><td><div>None</div></td></tr><tr><td style="font-weight:bold;vertical-align:top;">last_query</td><td style="vertical-align:top;">:</td><td><div>db.tag.id&gt;0</div></td></tr><tr><td style="font-weight:bold;vertical-align:top;">user_timezone</td><td style="vertical-align:top;">:</td><td><div>America/Los_Angeles</div></td></tr></table></div>'
tRp297
sS'etype'
p298
S"<class 'sqlite3.OperationalError'>"
p299
sS'date'
p300
S'Mon Apr 11 01:51:56 2016'
p301
sS'response'
p302
g61
(S's\xb52\x00\x00<div><table><tr><td style="font-weight:bold;vertical-align:top;">body</td><td style="vertical-align:top;">:</td><td><div>&lt;cStringIO.StringO object at 0x7fe9c4d79a40&gt;</div></td></tr><tr><td style="font-weight:bold;vertical-align:top;">cookies</td><td style="vertical-align:top;">:</td><td><div><table><tr><td style="font-weight:bold;vertical-align:top;">session_id_smartblog</td><td style="vertical-align:top;">:</td><td><div>104.32.222.90-a544b220-362f-4c7b-8986-6517c53e7163<table><tr><td style="font-weight:bold;vertical-align:top;">comment</td><td style="vertical-align:top;">:</td><td><div></div></td></tr><tr><td style="font-weight:bold;vertical-align:top;">domain</td><td style="vertical-align:top;">:</td><td><div></div></td></tr><tr><td style="font-weight:bold;vertical-align:top;">expires</td><td style="vertical-align:top;">:</td><td><div></div></td></tr><tr><td style="font-weight:bold;vertical-align:top;">httponly</td><td style="vertical-align:top;">:</td><td><div></div></td></tr><tr><td style="font-weight:bold;vertical-align:top;">max-age</td><td style="vertical-align:top;">:</td><td><div></div></td></tr><tr><td style="font-weight:bold;vertical-align:top;">path</td><td style="vertical-align:top;">:</td><td><div>/</div></td></tr><tr><td style="font-weight:bold;vertical-align:top;">secure</td><td style="vertical-align:top;">:</td><td><div></div></td></tr><tr><td style="font-weight:bold;vertical-align:top;">version</td><td style="vertical-align:top;">:</td><td><div></div></td></tr></table></div></td></tr></table></div></td></tr><tr><td style="font-weight:bold;vertical-align:top;">delimiters</td><td style="vertical-align:top;">:</td><td><div><table><tr><td><div>{{</div></td></tr><tr><td><div>}}</div></td></tr></table></div></td></tr><tr><td style="font-weight:bold;vertical-align:top;">files</td><td style="vertical-align:top;">:</td><td><div><table></table></div></td></tr><tr><td style="font-weight:bold;vertical-align:top;">flash</td><td style="vertical-align:top;">:</td><td><div></div></td></tr><tr><td style="font-weight:bold;vertical-align:top;">form_label_separator</td><td style="vertical-align:top;">:</td><td><div>: </div></td></tr><tr><td style="font-weight:bold;vertical-align:top;">formstyle</td><td style="vertical-align:top;">:</td><td><div>table3cols</div></td></tr><tr><td style="font-weight:bold;vertical-align:top;">generic_patterns</td><td style="vertical-align:top;">:</td><td><div><table></table></div></td></tr><tr><td style="font-weight:bold;vertical-align:top;">google_analytics_id</td><td style="vertical-align:top;">:</td><td><div>None</div></td></tr><tr><td style="font-weight:bold;vertical-align:top;">headers</td><td style="vertical-align:top;">:</td><td><div><table><tr><td style="font-weight:bold;vertical-align:top;">X-Powered-By</td><td style="vertical-align:top;">:</td><td><div>web2py</div></td></tr></table></div></td></tr><tr><td style="font-weight:bold;vertical-align:top;">logo</td><td style="vertical-align:top;">:</td><td><div><a class="brand" href="http://www.web2py.com/"><b>web<span>2</span>py</b>&trade;&nbsp;</a></div></td></tr><tr><td style="font-weight:bold;vertical-align:top;">menu</td><td style="vertical-align:top;">:</td><td><div><table><tr><td><div><table><tr><td><div>Home</div></td></tr><tr><td><div>False</div></td></tr><tr><td><div>/SmartBlog/default/index</div></td></tr><tr><td><div><table></table></div></td></tr></table></div></td></tr><tr><td><div><table><tr><td><div><span class="highlighted">web2py</span></div></td></tr><tr><td><div>False</div></td></tr><tr><td><div>http://web2py.com</div></td></tr><tr><td><div><table><tr><td><div><table><tr><td><div>My Sites</div></td></tr><tr><td><div>False</div></td></tr><tr><td><div>/admin/default/site</div></td></tr></table></div></td></tr><tr><td><div><table><tr><td><div>This App</div></td></tr><tr><td><div>False</div></td></tr><tr><td><div>/admin/default/design/SmartBlog</div></td></tr><tr><td><div>[(&lt;lazyT &#x27;Controller&#x27;&gt;, False, &#x27;/admin/default/edit/SmartBlog/controllers/default.py&#x27;), (&lt;lazyT &#x27;View&#x27;&gt;, False, &#x27;/admin/default/edit/SmartBlog/views/default/index.html&#x27;), (&lt;lazyT &#x27;Layout&#x27;&gt;, False, &#x27;/admin/default/edit/SmartBlog/views/layout.html&#x27;), (&lt;lazyT &#x27;Stylesheet&#x27;&gt;, False, &#x27;/admin/default/edit/SmartBlog/static/css/web2py.css&#x27;), (&lt;lazyT &#x27;DB Model&#x27;&gt;, False, &#x27;/admin/default/edit/SmartBlog/models/db.py&#x27;), (&lt;lazyT &#x27;Menu Model&#x27;&gt;, False, &#x27;/admin/default/edit/SmartBlog/models/menu.py&#x27;), (&lt;lazyT &#x27;Database&#x27;&gt;, False, &#x27;/SmartBlog/appadmin/index&#x27;), (&lt;lazyT &#x27;Errors&#x27;&gt;, False, &#x27;/admin/default/errors/SmartBlog&#x27;), (&lt;lazyT &#x27;About&#x27;&gt;, False, &#x27;/admin/default/about/SmartBlog&#x27;)]</div></td></tr></table></div></td></tr><tr><td><div><table><tr><td><div>web2py.com</div></td></tr><tr><td><div>False</div></td></tr><tr><td><div>http://www.web2py.com</div></td></tr><tr><td><div>[(&lt;lazyT &#x27;Download&#x27;&gt;, False, &#x27;http://www.web2py.com/examples/default/download&#x27;), (&lt;lazyT &#x27;Support&#x27;&gt;, False, &#x27;http://www.web2py.com/examples/default/support&#x27;), (&lt;lazyT &#x27;Demo&#x27;&gt;, False, &#x27;http://web2py.com/demo_admin&#x27;), (&lt;lazyT &#x27;Quick Examples&#x27;&gt;, False, &#x27;http://web2py.com/examples/default/examples&#x27;), (&lt;lazyT &#x27;FAQ&#x27;&gt;, False, &#x27;http://web2py.com/AlterEgo&#x27;), (&lt;lazyT &#x27;Videos&#x27;&gt;, False, &#x27;http://www.web2py.com/examples/default/videos/&#x27;), (&lt;lazyT &#x27;Free Applications&#x27;&gt;, False, &#x27;http://web2py.com/appliances&#x27;), (&lt;lazyT &#x27;Plugins&#x27;&gt;, False, &#x27;http://web2py.com/plugins&#x27;), (&lt;lazyT &#x27;Layouts&#x27;&gt;, False, &#x27;http://web2py.com/layouts&#x27;), (&lt;lazyT &#x27;Recipes&#x27;&gt;, False, &#x27;http://web2pyslices.com/&#x27;), (&lt;lazyT &#x27;Semantic&#x27;&gt;, False, &#x27;http://web2py.com/semantic&#x27;)]</div></td></tr></table></div></td></tr><tr><td><div><table><tr><td><div>Documentation</div></td></tr><tr><td><div>False</div></td></tr><tr><td><div>http://www.web2py.com/book</div></td></tr><tr><td><div>[(&lt;lazyT &#x27;Preface&#x27;&gt;, False, &#x27;http://www.web2py.com/book/default/chapter/00&#x27;), (&lt;lazyT &#x27;Introduction&#x27;&gt;, False, &#x27;http://www.web2py.com/book/default/chapter/01&#x27;), (&lt;lazyT &#x27;Python&#x27;&gt;, False, &#x27;http://www.web2py.com/book/default/chapter/02&#x27;), (&lt;lazyT &#x27;Overview&#x27;&gt;, False, &#x27;http://www.web2py.com/book/default/chapter/03&#x27;), (&lt;lazyT &#x27;The Core&#x27;&gt;, False, &#x27;http://www.web2py.com/book/default/chapter/04&#x27;), (&lt;lazyT &#x27;The Views&#x27;&gt;, False, &#x27;http://www.web2py.com/book/default/chapter/05&#x27;), (&lt;lazyT &#x27;Database&#x27;&gt;, False, &#x27;http://www.web2py.com/book/default/chapter/06&#x27;), (&lt;lazyT &#x27;Forms and Validators&#x27;&gt;, False, &#x27;http://www.web2py.com/book/default/chapter/07&#x27;), (&lt;lazyT &#x27;Email and SMS&#x27;&gt;, False, &#x27;http://www.web2py.com/book/default/chapter/08&#x27;), (&lt;lazyT &#x27;Access Control&#x27;&gt;, False, &#x27;http://www.web2py.com/book/default/chapter/09&#x27;), (&lt;lazyT &#x27;Services&#x27;&gt;, False, &#x27;http://www.web2py.com/book/default/chapter/10&#x27;), (&lt;lazyT &#x27;Ajax Recipes&#x27;&gt;, False, &#x27;http://www.web2py.com/book/default/chapter/11&#x27;), (&lt;lazyT &#x27;Components and Plugins&#x27;&gt;, False, &#x27;http://www.web2py.com/book/default/chapter/12&#x27;), (&lt;lazyT &#x27;Deployment Recipes&#x27;&gt;, False, &#x27;http://www.web2py.com/book/default/chapter/13&#x27;), (&lt;lazyT &#x27;Other Recipes&#x27;&gt;, False, &#x27;http://www.web2py.com/book/default/chapter/14&#x27;), (&lt;lazyT &#x27;Buy this book&#x27;&gt;, False, &#x27;http://stores.lulu.com/web2py&#x27;)]</div></td></tr></table></div></td></tr><tr><td><div><table><tr><td><div>Community</div></td></tr><tr><td><div>False</div></td></tr><tr><td><div>None</div></td></tr><tr><td><div>[(&lt;lazyT &#x27;Groups&#x27;&gt;, False, &#x27;http://www.web2py.com/examples/default/usergroups&#x27;), (&lt;lazyT &#x27;Twitter&#x27;&gt;, False, &#x27;http://twitter.com/web2py&#x27;), (&lt;lazyT &#x27;Live Chat&#x27;&gt;, False, &#x27;http://webchat.freenode.net/?channels=web2py&#x27;)]</div></td></tr></table></div></td></tr><tr><td><div><table><tr><td><div>Plugins</div></td></tr><tr><td><div>False</div></td></tr><tr><td><div>None</div></td></tr><tr><td><div>[(&#x27;plugin_wiki&#x27;, False, &#x27;http://web2py.com/examples/default/download&#x27;), (&lt;lazyT &#x27;Other Plugins&#x27;&gt;, False, &#x27;http://web2py.com/plugins&#x27;), (&lt;lazyT &#x27;Layout Plugins&#x27;&gt;, False, &#x27;http://web2py.com/layouts&#x27;)]</div></td></tr></table></div></td></tr></table></div></td></tr></table></div></td></tr></table></div></td></tr><tr><td style="font-weight:bold;vertical-align:top;">meta</td><td style="vertical-align:top;">:</td><td><div><table><tr><td style="font-weight:bold;vertical-align:top;">author</td><td style="vertical-align:top;">:</td><td><div>Your Name &lt;you@example.com&gt;</div></td></tr><tr><td style="font-weight:bold;vertical-align:top;">generator</td><td style="vertical-align:top;">:</td><td><div>Web2py Web Framework</div></td></tr><tr><td style="font-weight:bold;vertical-align:top;">keywords</td><td style="vertical-align:top;">:</td><td><div>web2py, python, framework</div></td></tr></table></div></td></tr><tr><td style="font-weight:bold;vertical-align:top;">models_to_run</td><td style="vertical-align:top;">:</td><td><div><table><tr><td><div>^\\w+\\.py$</div></td></tr><tr><td><div>^default/\\w+\\.py$</div></td></tr><tr><td><div>^default/index/\\w+\\.py$</div></td></tr></table></div></td></tr><tr><td style="font-weight:bold;vertical-align:top;">postprocessing</td><td style="vertical-align:top;">:</td><td><div><table></table></div></td></tr><tr><td style="font-weight:bold;vertical-align:top;">session_client</td><td style="vertical-align:top;">:</td><td><div>104.32.222.90</div></td></tr><tr><td style="font-weight:bold;vertical-align:top;">session_cookie_compression_level</td><td style="vertical-align:top;">:</td><td><div>None</div></td></tr><tr><td style="font-weight:bold;vertical-align:top;">session_cookie_expires</td><td style="vertical-align:top;">:</td><td><div>None</div></td></tr><tr><td style="font-weight:bold;vertical-align:top;">session_cookie_key</td><td style="vertical-align:top;">:</td><td><div>None</div></td></tr><tr><td style="font-weight:bold;vertical-align:top;">session_data_name</td><td style="vertical-align:top;">:</td><td><div>session_data_smartblog</div></td></tr><tr><td style="font-weight:bold;vertical-align:top;">session_file</td><td style="vertical-align:top;">:</td><td><div>&lt;open file &#x27;/home/jerryliu0228/web2py/applications/SmartBlog/sessions/078/093/104.32.222.90-a544b220-362f-4c7b-8986-6517c53e7163&#x27;, mode &#x27;rb+&#x27; at 0x7fe9c52e09c0&gt;</div></td></tr><tr><td style="font-weight:bold;vertical-align:top;">session_filename</td><td style="vertical-align:top;">:</td><td><div>/home/jerryliu0228/web2py/applications/SmartBlog/sessions/104.32.222.90-a544b220-362f-4c7b-8986-6517c53e7163</div></td></tr><tr><td style="font-weight:bold;vertical-align:top;">session_hash</td><td style="vertical-align:top;">:</td><td><div>b3b3dd6036f7e232f96aefca464ec721</div></td></tr><tr><td style="font-weight:bold;vertical-align:top;">session_id</td><td style="vertical-align:top;">:</td><td><div>104.32.222.90-a544b220-362f-4c7b-8986-6517c53e7163</div></td></tr><tr><td style="font-weight:bold;vertical-align:top;">session_id_name</td><td style="vertical-align:top;">:</td><td><div>session_id_smartblog</div></td></tr><tr><td style="font-weight:bold;vertical-align:top;">session_locked</td><td style="vertical-align:top;">:</td><td><div>True</div></td></tr><tr><td style="font-weight:bold;vertical-align:top;">session_masterapp</td><td style="vertical-align:top;">:</td><td><div>SmartBlog</div></td></tr><tr><td style="font-weight:bold;vertical-align:top;">session_new</td><td style="vertical-align:top;">:</td><td><div>False</div></td></tr><tr><td style="font-weight:bold;vertical-align:top;">session_storage_type</td><td style="vertical-align:top;">:</td><td><div>file</div></td></tr><tr><td style="font-weight:bold;vertical-align:top;">status</td><td style="vertical-align:top;">:</td><td><div>200</div></td></tr><tr><td style="font-weight:bold;vertical-align:top;">subtitle</td><td style="vertical-align:top;">:</td><td><div></div></td></tr><tr><td style="font-weight:bold;vertical-align:top;">title</td><td style="vertical-align:top;">:</td><td><div>Smartblog</div></td></tr><tr><td style="font-weight:bold;vertical-align:top;">view</td><td style="vertical-align:top;">:</td><td><div>default/index.html</div></td></tr></table></div>'
tRp303
sS'locals'
p304
(dp305
S'a'
S"('SELECT  post_tag.id, post_tag.post, post_tag.tag...ER BY db.post_tag.post DESC|db.post_tag.tag DESC;',)"
p306
sS'self'
p307
S'<gluon.dal.adapters.sqlite.SQLiteAdapter object>'
p308
sS'b'
g21
sS'command'
p309
S"'SELECT  post_tag.id, post_tag.post, post_tag.tag...ER BY db.post_tag.post DESC|db.post_tag.tag DESC;'"
p310
sS't0'
p311
S'1460339516.111507'
p312
sssS'traceback'
p313
S'Traceback (most recent call last):\n  File "/home/jerryliu0228/web2py/gluon/restricted.py", line 224, in restricted\n    exec ccode in environment\n  File "/home/jerryliu0228/web2py/applications/SmartBlog/controllers/default.py", line 97, in <module>\n  File "/home/jerryliu0228/web2py/gluon/globals.py", line 393, in <lambda>\n    self._caller = lambda f: f()\n  File "/home/jerryliu0228/web2py/applications/SmartBlog/controllers/default.py", line 19, in index\n    post_tag_rels = db(db.post_tag.post.belongs(post_id_list)).select(db.post_tag.ALL, orderby = "db.post_tag.post DESC|db.post_tag.tag DESC")\n  File "/home/jerryliu0228/web2py/gluon/dal/objects.py", line 2066, in select\n    return adapter.select(self.query,fields,attributes)\n  File "/home/jerryliu0228/web2py/gluon/dal/adapters/sqlite.py", line 125, in select\n    return super(SQLiteAdapter, self).select(query, fields, attributes)\n  File "/home/jerryliu0228/web2py/gluon/dal/adapters/base.py", line 1232, in select\n    return self._select_aux(sql,fields,attributes)\n  File "/home/jerryliu0228/web2py/gluon/dal/adapters/base.py", line 1197, in _select_aux\n    self.execute(sql)\n  File "/home/jerryliu0228/web2py/gluon/dal/adapters/base.py", line 1319, in execute\n    return self.log_execute(*a, **b)\n  File "/home/jerryliu0228/web2py/gluon/dal/adapters/base.py", line 1313, in log_execute\n    ret = self.cursor.execute(command, *a[1:], **b)\nOperationalError: near "|": syntax error\n'
p314
s.