(dp1
S'output'
p2
S"<type 'exceptions.SyntaxError'> Field: unknown field type: tag for tag"
p3
sS'layer'
p4
S'/home/jerryliu0228/web2py/applications/SmartBlog/models/db_post.py'
p5
sS'code'
p6
S"# -*- coding: utf-8 -*-\n\ndb.define_table('category',\n                Field('category_name'))\n\ndb.define_table('tag',\n                Field('tag_name'))\n\ndb.define_table('post',\n                Field('title'),\n                Field('body', 'text'),\n                Field('category', 'reference category'),\n                Field('author', 'reference auth_user'),\n                Field('if_display_author', 'boolean'),\n                Field('post_datetime', 'datetime')\n                )\n\ndb.define_table('post_tag',\n                 Field('post', 'reference post'),\n                 Field('tag', 'tag')\n                 )\n\ndef getAllCategories():\n    query = db.category.id>0\n    rows= db(query).select()\n    return rows\n\ndef getAllCategoriesWithCount():\n    count = db.post.id.count().with_alias('count')\n    rows=db().select(db.category.category_name, db.category.id, count,\n        left=db.post.on(db.category.id==db.post.category), groupby = db.category.id)\n    return rows\n"
p7
sS'snapshot'
p8
(dp9
S'exception'
p10
(dp11
S'__getslice__'
p12
S"<method-wrapper '__getslice__' of exceptions.SyntaxError object>"
p13
sS'text'
p14
S'None'
p15
sS'__str__'
p16
S"<method-wrapper '__str__' of exceptions.SyntaxError object>"
p17
sS'__reduce__'
p18
S'<built-in method __reduce__ of exceptions.SyntaxError object>'
p19
sS'__dict__'
p20
S'{}'
p21
sS'__sizeof__'
p22
S'<built-in method __sizeof__ of exceptions.SyntaxError object>'
p23
sS'__init__'
p24
S"<method-wrapper '__init__' of exceptions.SyntaxError object>"
p25
sS'__setattr__'
p26
S"<method-wrapper '__setattr__' of exceptions.SyntaxError object>"
p27
sS'__reduce_ex__'
p28
S'<built-in method __reduce_ex__ of exceptions.SyntaxError object>'
p29
sS'__new__'
p30
S'<built-in method __new__ of type object>'
p31
sS'__format__'
p32
S'<built-in method __format__ of exceptions.SyntaxError object>'
p33
sS'__class__'
p34
S"<type 'exceptions.SyntaxError'>"
p35
sS'filename'
p36
S'None'
p37
sS'lineno'
p38
S'None'
p39
sS'msg'
p40
S"'Field: unknown field type: tag for tag'"
p41
sS'__doc__'
p42
S"'Invalid syntax.'"
p43
sS'__getitem__'
p44
S"<method-wrapper '__getitem__' of exceptions.SyntaxError object>"
p45
sS'__setstate__'
p46
S'<built-in method __setstate__ of exceptions.SyntaxError object>'
p47
sS'__getattribute__'
p48
S"<method-wrapper '__getattribute__' of exceptions.SyntaxError object>"
p49
sS'print_file_and_line'
p50
S'None'
p51
sS'args'
p52
S"('Field: unknown field type: tag for tag',)"
p53
sS'__subclasshook__'
p54
S'<built-in method __subclasshook__ of type object>'
p55
sS'offset'
p56
S'None'
p57
sS'__unicode__'
p58
S'<built-in method __unicode__ of exceptions.SyntaxError object>'
p59
sS'__delattr__'
p60
S"<method-wrapper '__delattr__' of exceptions.SyntaxError object>"
p61
sS'__repr__'
p62
S"<method-wrapper '__repr__' of exceptions.SyntaxError object>"
p63
sS'__hash__'
p64
S"<method-wrapper '__hash__' of exceptions.SyntaxError object>"
p65
ssS'evalue'
p66
S'Field: unknown field type: tag for tag'
p67
sS'request'
p68
cgluon.html
XML_unpickle
p69
(S's[a\x00\x00<div><table><tr><td style="font-weight:bold;vertical-align:top;">ajax</td><td style="vertical-align:top;">:</td><td><div>True</div></td></tr><tr><td style="font-weight:bold;vertical-align:top;">application</td><td style="vertical-align:top;">:</td><td><div>SmartBlog</div></td></tr><tr><td style="font-weight:bold;vertical-align:top;">args</td><td style="vertical-align:top;">:</td><td><div><table></table></div></td></tr><tr><td style="font-weight:bold;vertical-align:top;">cid</td><td style="vertical-align:top;">:</td><td><div>c71178049632</div></td></tr><tr><td style="font-weight:bold;vertical-align:top;">client</td><td style="vertical-align:top;">:</td><td><div>104.32.222.90</div></td></tr><tr><td style="font-weight:bold;vertical-align:top;">controller</td><td style="vertical-align:top;">:</td><td><div>appadmin</div></td></tr><tr><td style="font-weight:bold;vertical-align:top;">cookies</td><td style="vertical-align:top;">:</td><td><div><table><tr><td style="font-weight:bold;vertical-align:top;">session_id_admin</td><td style="vertical-align:top;">:</td><td><div>104.32.222.90-fbba23db-f13f-4b8e-a535-73af18448b76<table><tr><td style="font-weight:bold;vertical-align:top;">comment</td><td style="vertical-align:top;">:</td><td><div></div></td></tr><tr><td style="font-weight:bold;vertical-align:top;">domain</td><td style="vertical-align:top;">:</td><td><div></div></td></tr><tr><td style="font-weight:bold;vertical-align:top;">expires</td><td style="vertical-align:top;">:</td><td><div></div></td></tr><tr><td style="font-weight:bold;vertical-align:top;">httponly</td><td style="vertical-align:top;">:</td><td><div></div></td></tr><tr><td style="font-weight:bold;vertical-align:top;">max-age</td><td style="vertical-align:top;">:</td><td><div></div></td></tr><tr><td style="font-weight:bold;vertical-align:top;">path</td><td style="vertical-align:top;">:</td><td><div></div></td></tr><tr><td style="font-weight:bold;vertical-align:top;">secure</td><td style="vertical-align:top;">:</td><td><div></div></td></tr><tr><td style="font-weight:bold;vertical-align:top;">version</td><td style="vertical-align:top;">:</td><td><div></div></td></tr></table></div></td></tr><tr><td style="font-weight:bold;vertical-align:top;">session_id_cms</td><td style="vertical-align:top;">:</td><td><div>104.32.222.90-6d915900-c351-45ef-b4a3-569c275a77ae<table><tr><td style="font-weight:bold;vertical-align:top;">comment</td><td style="vertical-align:top;">:</td><td><div></div></td></tr><tr><td style="font-weight:bold;vertical-align:top;">domain</td><td style="vertical-align:top;">:</td><td><div></div></td></tr><tr><td style="font-weight:bold;vertical-align:top;">expires</td><td style="vertical-align:top;">:</td><td><div></div></td></tr><tr><td style="font-weight:bold;vertical-align:top;">httponly</td><td style="vertical-align:top;">:</td><td><div></div></td></tr><tr><td style="font-weight:bold;vertical-align:top;">max-age</td><td style="vertical-align:top;">:</td><td><div></div></td></tr><tr><td style="font-weight:bold;vertical-align:top;">path</td><td style="vertical-align:top;">:</td><td><div></div></td></tr><tr><td style="font-weight:bold;vertical-align:top;">secure</td><td style="vertical-align:top;">:</td><td><div></div></td></tr><tr><td style="font-weight:bold;vertical-align:top;">version</td><td style="vertical-align:top;">:</td><td><div></div></td></tr></table></div></td></tr><tr><td style="font-weight:bold;vertical-align:top;">session_id_smartblog</td><td style="vertical-align:top;">:</td><td><div>104.32.222.90-07d8eac7-6980-409b-840c-5333e098c8de<table><tr><td style="font-weight:bold;vertical-align:top;">comment</td><td style="vertical-align:top;">:</td><td><div></div></td></tr><tr><td style="font-weight:bold;vertical-align:top;">domain</td><td style="vertical-align:top;">:</td><td><div></div></td></tr><tr><td style="font-weight:bold;vertical-align:top;">expires</td><td style="vertical-align:top;">:</td><td><div></div></td></tr><tr><td style="font-weight:bold;vertical-align:top;">httponly</td><td style="vertical-align:top;">:</td><td><div></div></td></tr><tr><td style="font-weight:bold;vertical-align:top;">max-age</td><td style="vertical-align:top;">:</td><td><div></div></td></tr><tr><td style="font-weight:bold;vertical-align:top;">path</td><td style="vertical-align:top;">:</td><td><div></div></td></tr><tr><td style="font-weight:bold;vertical-align:top;">secure</td><td style="vertical-align:top;">:</td><td><div></div></td></tr><tr><td style="font-weight:bold;vertical-align:top;">version</td><td style="vertical-align:top;">:</td><td><div></div></td></tr></table></div></td></tr><tr><td style="font-weight:bold;vertical-align:top;">sessionid</td><td style="vertical-align:top;">:</td><td><div>dttcawekok611odg1uhqp6f8o9hxwclz<table><tr><td style="font-weight:bold;vertical-align:top;">comment</td><td style="vertical-align:top;">:</td><td><div></div></td></tr><tr><td style="font-weight:bold;vertical-align:top;">domain</td><td style="vertical-align:top;">:</td><td><div></div></td></tr><tr><td style="font-weight:bold;vertical-align:top;">expires</td><td style="vertical-align:top;">:</td><td><div></div></td></tr><tr><td style="font-weight:bold;vertical-align:top;">httponly</td><td style="vertical-align:top;">:</td><td><div></div></td></tr><tr><td style="font-weight:bold;vertical-align:top;">max-age</td><td style="vertical-align:top;">:</td><td><div></div></td></tr><tr><td style="font-weight:bold;vertical-align:top;">path</td><td style="vertical-align:top;">:</td><td><div></div></td></tr><tr><td style="font-weight:bold;vertical-align:top;">secure</td><td style="vertical-align:top;">:</td><td><div></div></td></tr><tr><td style="font-weight:bold;vertical-align:top;">version</td><td style="vertical-align:top;">:</td><td><div></div></td></tr></table></div></td></tr></table></div></td></tr><tr><td style="font-weight:bold;vertical-align:top;">env</td><td style="vertical-align:top;">:</td><td><div><table><tr><td style="font-weight:bold;vertical-align:top;">CONTENT_LENGTH</td><td style="vertical-align:top;">:</td><td><div></div></td></tr><tr><td style="font-weight:bold;vertical-align:top;">CONTENT_TYPE</td><td style="vertical-align:top;">:</td><td><div></div></td></tr><tr><td style="font-weight:bold;vertical-align:top;">DOCUMENT_ROOT</td><td style="vertical-align:top;">:</td><td><div>/usr/local/openresty/nginx/html</div></td></tr><tr><td style="font-weight:bold;vertical-align:top;">HTTPS</td><td style="vertical-align:top;">:</td><td><div>on</div></td></tr><tr><td style="font-weight:bold;vertical-align:top;">HTTP_ACCEPT</td><td style="vertical-align:top;">:</td><td><div>*/*</div></td></tr><tr><td style="font-weight:bold;vertical-align:top;">HTTP_ACCEPT_ENCODING</td><td style="vertical-align:top;">:</td><td><div>gzip, deflate</div></td></tr><tr><td style="font-weight:bold;vertical-align:top;">HTTP_ACCEPT_LANGUAGE</td><td style="vertical-align:top;">:</td><td><div>en-US,en;q=0.8,zh-CN;q=0.6,zh;q=0.4</div></td></tr><tr><td style="font-weight:bold;vertical-align:top;">HTTP_CONNECTION</td><td style="vertical-align:top;">:</td><td><div>close</div></td></tr><tr><td style="font-weight:bold;vertical-align:top;">HTTP_COOKIE</td><td style="vertical-align:top;">:</td><td><div>sessionid=dttcawekok611odg1uhqp6f8o9hxwclz; _ga=GA1.2.2053119432.1460253262; session_id_smartblog=104.32.222.90-07d8eac7-6980-409b-840c-5333e098c8de; session_id_cms=104.32.222.90-6d915900-c351-45ef-b4a3-569c275a77ae; session_id_admin=104.32.222.90-fbba23db-f13f-4b8e-a535-73af18448b76</div></td></tr><tr><td style="font-weight:bold;vertical-align:top;">HTTP_HOST</td><td style="vertical-align:top;">:</td><td><div>jerryliu0228.pythonanywhere.com</div></td></tr><tr><td style="font-weight:bold;vertical-align:top;">HTTP_REFERER</td><td style="vertical-align:top;">:</td><td><div>https://jerryliu0228.pythonanywhere.com/admin/default/edit/SmartBlog/controllers/post.py?id=controllers__post__py</div></td></tr><tr><td style="font-weight:bold;vertical-align:top;">HTTP_USER_AGENT</td><td style="vertical-align:top;">:</td><td><div>Mozilla/5.0 (Windows NT 6.1; WOW64) AppleWebKit/537.36 (KHTML, like Gecko) Chrome/49.0.2623.110 Safari/537.36</div></td></tr><tr><td style="font-weight:bold;vertical-align:top;">HTTP_WEB2PY_COMPONENT_ELEMENT</td><td style="vertical-align:top;">:</td><td><div>c71178049632</div></td></tr><tr><td style="font-weight:bold;vertical-align:top;">HTTP_WEB2PY_COMPONENT_LOCATION</td><td style="vertical-align:top;">:</td><td><div>https://jerryliu0228.pythonanywhere.com/admin/default/edit/SmartBlog/controllers/post.py?id=controllers__post__py#</div></td></tr><tr><td style="font-weight:bold;vertical-align:top;">HTTP_X_FORWARDED_FOR</td><td style="vertical-align:top;">:</td><td><div>104.32.222.90</div></td></tr><tr><td style="font-weight:bold;vertical-align:top;">HTTP_X_REAL_IP</td><td style="vertical-align:top;">:</td><td><div>104.32.222.90</div></td></tr><tr><td style="font-weight:bold;vertical-align:top;">HTTP_X_REQUESTED_WITH</td><td style="vertical-align:top;">:</td><td><div>XMLHttpRequest</div></td></tr><tr><td style="font-weight:bold;vertical-align:top;">PATH_INFO</td><td style="vertical-align:top;">:</td><td><div>/SmartBlog/appadmin/hooks</div></td></tr><tr><td style="font-weight:bold;vertical-align:top;">QUERY_STRING</td><td style="vertical-align:top;">:</td><td><div></div></td></tr><tr><td style="font-weight:bold;vertical-align:top;">REMOTE_ADDR</td><td style="vertical-align:top;">:</td><td><div>10.169.53.174</div></td></tr><tr><td style="font-weight:bold;vertical-align:top;">REMOTE_PORT</td><td style="vertical-align:top;">:</td><td><div>37233</div></td></tr><tr><td style="font-weight:bold;vertical-align:top;">REQUEST_METHOD</td><td style="vertical-align:top;">:</td><td><div>GET</div></td></tr><tr><td style="font-weight:bold;vertical-align:top;">REQUEST_URI</td><td style="vertical-align:top;">:</td><td><div>/SmartBlog/appadmin/hooks</div></td></tr><tr><td style="font-weight:bold;vertical-align:top;">SCRIPT_NAME</td><td style="vertical-align:top;">:</td><td><div></div></td></tr><tr><td style="font-weight:bold;vertical-align:top;">SERVER_NAME</td><td style="vertical-align:top;">:</td><td><div>jerryliu0228.pythonanywhere.com</div></td></tr><tr><td style="font-weight:bold;vertical-align:top;">SERVER_PORT</td><td style="vertical-align:top;">:</td><td><div>443</div></td></tr><tr><td style="font-weight:bold;vertical-align:top;">SERVER_PROTOCOL</td><td style="vertical-align:top;">:</td><td><div>HTTP/1.1</div></td></tr><tr><td style="font-weight:bold;vertical-align:top;">app_folders</td><td style="vertical-align:top;">:</td><td><div>set([&#x27;/home/jerryliu0228/web2py/applications/CMS/&#x27;, &#x27;/home/jerryliu0228/web2py/applications/SmartBlog/&#x27;, &#x27;/home/jerryliu0228/web2py/applications/dinna/&#x27;, &#x27;/home/jerryliu0228/web2py/applications/admin/&#x27;])</div></td></tr><tr><td style="font-weight:bold;vertical-align:top;">applications_parent</td><td style="vertical-align:top;">:</td><td><div>/home/jerryliu0228/web2py</div></td></tr><tr><td style="font-weight:bold;vertical-align:top;">content_length</td><td style="vertical-align:top;">:</td><td><div></div></td></tr><tr><td style="font-weight:bold;vertical-align:top;">content_type</td><td style="vertical-align:top;">:</td><td><div></div></td></tr><tr><td style="font-weight:bold;vertical-align:top;">db_sessions</td><td style="vertical-align:top;">:</td><td><div>set([])</div></td></tr><tr><td style="font-weight:bold;vertical-align:top;">debugging</td><td style="vertical-align:top;">:</td><td><div>True</div></td></tr><tr><td style="font-weight:bold;vertical-align:top;">document_root</td><td style="vertical-align:top;">:</td><td><div>/usr/local/openresty/nginx/html</div></td></tr><tr><td style="font-weight:bold;vertical-align:top;">gluon_parent</td><td style="vertical-align:top;">:</td><td><div>/home/jerryliu0228/web2py</div></td></tr><tr><td style="font-weight:bold;vertical-align:top;">http_accept</td><td style="vertical-align:top;">:</td><td><div>*/*</div></td></tr><tr><td style="font-weight:bold;vertical-align:top;">http_accept_encoding</td><td style="vertical-align:top;">:</td><td><div>gzip, deflate</div></td></tr><tr><td style="font-weight:bold;vertical-align:top;">http_accept_language</td><td style="vertical-align:top;">:</td><td><div>en-US,en;q=0.8,zh-CN;q=0.6,zh;q=0.4</div></td></tr><tr><td style="font-weight:bold;vertical-align:top;">http_connection</td><td style="vertical-align:top;">:</td><td><div>close</div></td></tr><tr><td style="font-weight:bold;vertical-align:top;">http_cookie</td><td style="vertical-align:top;">:</td><td><div>sessionid=dttcawekok611odg1uhqp6f8o9hxwclz; _ga=GA1.2.2053119432.1460253262; session_id_smartblog=104.32.222.90-07d8eac7-6980-409b-840c-5333e098c8de; session_id_cms=104.32.222.90-6d915900-c351-45ef-b4a3-569c275a77ae; session_id_admin=104.32.222.90-fbba23db-f13f-4b8e-a535-73af18448b76</div></td></tr><tr><td style="font-weight:bold;vertical-align:top;">http_host</td><td style="vertical-align:top;">:</td><td><div>jerryliu0228.pythonanywhere.com</div></td></tr><tr><td style="font-weight:bold;vertical-align:top;">http_referer</td><td style="vertical-align:top;">:</td><td><div>https://jerryliu0228.pythonanywhere.com/admin/default/edit/SmartBlog/controllers/post.py?id=controllers__post__py</div></td></tr><tr><td style="font-weight:bold;vertical-align:top;">http_user_agent</td><td style="vertical-align:top;">:</td><td><div>Mozilla/5.0 (Windows NT 6.1; WOW64) AppleWebKit/537.36 (KHTML, like Gecko) Chrome/49.0.2623.110 Safari/537.36</div></td></tr><tr><td style="font-weight:bold;vertical-align:top;">http_web2py_component_element</td><td style="vertical-align:top;">:</td><td><div>c71178049632</div></td></tr><tr><td style="font-weight:bold;vertical-align:top;">http_web2py_component_location</td><td style="vertical-align:top;">:</td><td><div>https://jerryliu0228.pythonanywhere.com/admin/default/edit/SmartBlog/controllers/post.py?id=controllers__post__py#</div></td></tr><tr><td style="font-weight:bold;vertical-align:top;">http_x_forwarded_for</td><td style="vertical-align:top;">:</td><td><div>104.32.222.90</div></td></tr><tr><td style="font-weight:bold;vertical-align:top;">http_x_real_ip</td><td style="vertical-align:top;">:</td><td><div>104.32.222.90</div></td></tr><tr><td style="font-weight:bold;vertical-align:top;">http_x_requested_with</td><td style="vertical-align:top;">:</td><td><div>XMLHttpRequest</div></td></tr><tr><td style="font-weight:bold;vertical-align:top;">https</td><td style="vertical-align:top;">:</td><td><div>on</div></td></tr><tr><td style="font-weight:bold;vertical-align:top;">is_jython</td><td style="vertical-align:top;">:</td><td><div>False</div></td></tr><tr><td style="font-weight:bold;vertical-align:top;">is_pypy</td><td style="vertical-align:top;">:</td><td><div>False</div></td></tr><tr><td style="font-weight:bold;vertical-align:top;">is_source</td><td style="vertical-align:top;">:</td><td><div>True</div></td></tr><tr><td style="font-weight:bold;vertical-align:top;">local_hosts</td><td style="vertical-align:top;">:</td><td><div><table><tr><td><div>::ffff:127.0.0.1</div></td></tr><tr><td><div>::1</div></td></tr><tr><td><div>50.19.109.98</div></td></tr><tr><td><div>127.0.0.1</div></td></tr><tr><td><div>jerryliu0228.pythonanywhere.com</div></td></tr><tr><td><div>glenn-liveweb8</div></td></tr><tr><td><div>localhost</div></td></tr></table></div></td></tr><tr><td style="font-weight:bold;vertical-align:top;">path_info</td><td style="vertical-align:top;">:</td><td><div>/SmartBlog/appadmin/hooks</div></td></tr><tr><td style="font-weight:bold;vertical-align:top;">query_string</td><td style="vertical-align:top;">:</td><td><div></div></td></tr><tr><td style="font-weight:bold;vertical-align:top;">remote_addr</td><td style="vertical-align:top;">:</td><td><div>10.169.53.174</div></td></tr><tr><td style="font-weight:bold;vertical-align:top;">remote_port</td><td style="vertical-align:top;">:</td><td><div>37233</div></td></tr><tr><td style="font-weight:bold;vertical-align:top;">request_method</td><td style="vertical-align:top;">:</td><td><div>GET</div></td></tr><tr><td style="font-weight:bold;vertical-align:top;">request_uri</td><td style="vertical-align:top;">:</td><td><div>/SmartBlog/appadmin/hooks</div></td></tr><tr><td style="font-weight:bold;vertical-align:top;">script_name</td><td style="vertical-align:top;">:</td><td><div></div></td></tr><tr><td style="font-weight:bold;vertical-align:top;">server_name</td><td style="vertical-align:top;">:</td><td><div>jerryliu0228.pythonanywhere.com</div></td></tr><tr><td style="font-weight:bold;vertical-align:top;">server_port</td><td style="vertical-align:top;">:</td><td><div>443</div></td></tr><tr><td style="font-weight:bold;vertical-align:top;">server_protocol</td><td style="vertical-align:top;">:</td><td><div>HTTP/1.1</div></td></tr><tr><td style="font-weight:bold;vertical-align:top;">uwsgi.node</td><td style="vertical-align:top;">:</td><td><div>glenn-liveweb8</div></td></tr><tr><td style="font-weight:bold;vertical-align:top;">uwsgi.version</td><td style="vertical-align:top;">:</td><td><div>2.0.5.1</div></td></tr><tr><td style="font-weight:bold;vertical-align:top;">uwsgi_node</td><td style="vertical-align:top;">:</td><td><div>glenn-liveweb8</div></td></tr><tr><td style="font-weight:bold;vertical-align:top;">uwsgi_version</td><td style="vertical-align:top;">:</td><td><div>2.0.5.1</div></td></tr><tr><td style="font-weight:bold;vertical-align:top;">web2py_path</td><td style="vertical-align:top;">:</td><td><div>/home/jerryliu0228/web2py</div></td></tr><tr><td style="font-weight:bold;vertical-align:top;">web2py_version</td><td style="vertical-align:top;">:</td><td><div>2.9.12-stable+timestamp.2015.01.17.06.11.03</div></td></tr><tr><td style="font-weight:bold;vertical-align:top;">wsgi.errors</td><td style="vertical-align:top;">:</td><td><div>&lt;uwsgi_file__bin_user_wsgi_wrapper.ErrorLogFile object at 0x7fe9d6c5c310&gt;</div></td></tr><tr><td style="font-weight:bold;vertical-align:top;">wsgi.file_wrapper</td><td style="vertical-align:top;">:</td><td><div>&lt;built-in function uwsgi_sendfile&gt;</div></td></tr><tr><td style="font-weight:bold;vertical-align:top;">wsgi.input</td><td style="vertical-align:top;">:</td><td><div>&lt;uwsgi._Input object at 0x7fe9e0d7ee58&gt;</div></td></tr><tr><td style="font-weight:bold;vertical-align:top;">wsgi.multiprocess</td><td style="vertical-align:top;">:</td><td><div>True</div></td></tr><tr><td style="font-weight:bold;vertical-align:top;">wsgi.multithread</td><td style="vertical-align:top;">:</td><td><div>False</div></td></tr><tr><td style="font-weight:bold;vertical-align:top;">wsgi.run_once</td><td style="vertical-align:top;">:</td><td><div>False</div></td></tr><tr><td style="font-weight:bold;vertical-align:top;">wsgi.url_scheme</td><td style="vertical-align:top;">:</td><td><div>https</div></td></tr><tr><td style="font-weight:bold;vertical-align:top;">wsgi.version</td><td style="vertical-align:top;">:</td><td><div><table><tr><td><div>1</div></td></tr><tr><td><div>0</div></td></tr></table></div></td></tr><tr><td style="font-weight:bold;vertical-align:top;">wsgi_errors</td><td style="vertical-align:top;">:</td><td><div>&lt;uwsgi_file__bin_user_wsgi_wrapper.ErrorLogFile object at 0x7fe9d6c5c310&gt;</div></td></tr><tr><td style="font-weight:bold;vertical-align:top;">wsgi_file_wrapper</td><td style="vertical-align:top;">:</td><td><div>&lt;built-in function uwsgi_sendfile&gt;</div></td></tr><tr><td style="font-weight:bold;vertical-align:top;">wsgi_input</td><td style="vertical-align:top;">:</td><td><div>&lt;uwsgi._Input object at 0x7fe9e0d7ee58&gt;</div></td></tr><tr><td style="font-weight:bold;vertical-align:top;">wsgi_multiprocess</td><td style="vertical-align:top;">:</td><td><div>True</div></td></tr><tr><td style="font-weight:bold;vertical-align:top;">wsgi_multithread</td><td style="vertical-align:top;">:</td><td><div>False</div></td></tr><tr><td style="font-weight:bold;vertical-align:top;">wsgi_run_once</td><td style="vertical-align:top;">:</td><td><div>False</div></td></tr><tr><td style="font-weight:bold;vertical-align:top;">wsgi_url_scheme</td><td style="vertical-align:top;">:</td><td><div>https</div></td></tr><tr><td style="font-weight:bold;vertical-align:top;">wsgi_version</td><td style="vertical-align:top;">:</td><td><div><table><tr><td><div>1</div></td></tr><tr><td><div>0</div></td></tr></table></div></td></tr></table></div></td></tr><tr><td style="font-weight:bold;vertical-align:top;">extension</td><td style="vertical-align:top;">:</td><td><div>html</div></td></tr><tr><td style="font-weight:bold;vertical-align:top;">folder</td><td style="vertical-align:top;">:</td><td><div>/home/jerryliu0228/web2py/applications/SmartBlog/</div></td></tr><tr><td style="font-weight:bold;vertical-align:top;">function</td><td style="vertical-align:top;">:</td><td><div>hooks</div></td></tr><tr><td style="font-weight:bold;vertical-align:top;">global_settings</td><td style="vertical-align:top;">:</td><td><div><table><tr><td style="font-weight:bold;vertical-align:top;">app_folders</td><td style="vertical-align:top;">:</td><td><div>set([&#x27;/home/jerryliu0228/web2py/applications/CMS/&#x27;, &#x27;/home/jerryliu0228/web2py/applications/SmartBlog/&#x27;, &#x27;/home/jerryliu0228/web2py/applications/dinna/&#x27;, &#x27;/home/jerryliu0228/web2py/applications/admin/&#x27;])</div></td></tr><tr><td style="font-weight:bold;vertical-align:top;">applications_parent</td><td style="vertical-align:top;">:</td><td><div>/home/jerryliu0228/web2py</div></td></tr><tr><td style="font-weight:bold;vertical-align:top;">db_sessions</td><td style="vertical-align:top;">:</td><td><div>set([])</div></td></tr><tr><td style="font-weight:bold;vertical-align:top;">debugging</td><td style="vertical-align:top;">:</td><td><div>True</div></td></tr><tr><td style="font-weight:bold;vertical-align:top;">gluon_parent</td><td style="vertical-align:top;">:</td><td><div>/home/jerryliu0228/web2py</div></td></tr><tr><td style="font-weight:bold;vertical-align:top;">is_jython</td><td style="vertical-align:top;">:</td><td><div>False</div></td></tr><tr><td style="font-weight:bold;vertical-align:top;">is_pypy</td><td style="vertical-align:top;">:</td><td><div>False</div></td></tr><tr><td style="font-weight:bold;vertical-align:top;">is_source</td><td style="vertical-align:top;">:</td><td><div>True</div></td></tr><tr><td style="font-weight:bold;vertical-align:top;">local_hosts</td><td style="vertical-align:top;">:</td><td><div><table><tr><td><div>::ffff:127.0.0.1</div></td></tr><tr><td><div>::1</div></td></tr><tr><td><div>50.19.109.98</div></td></tr><tr><td><div>127.0.0.1</div></td></tr><tr><td><div>jerryliu0228.pythonanywhere.com</div></td></tr><tr><td><div>glenn-liveweb8</div></td></tr><tr><td><div>localhost</div></td></tr></table></div></td></tr><tr><td style="font-weight:bold;vertical-align:top;">web2py_version</td><td style="vertical-align:top;">:</td><td><div>2.9.12-stable+timestamp.2015.01.17.06.11.03</div></td></tr></table></div></td></tr><tr><td style="font-weight:bold;vertical-align:top;">is_https</td><td style="vertical-align:top;">:</td><td><div>True</div></td></tr><tr><td style="font-weight:bold;vertical-align:top;">is_local</td><td style="vertical-align:top;">:</td><td><div>False</div></td></tr><tr><td style="font-weight:bold;vertical-align:top;">is_restful</td><td style="vertical-align:top;">:</td><td><div>False</div></td></tr><tr><td style="font-weight:bold;vertical-align:top;">is_sheduler</td><td style="vertical-align:top;">:</td><td><div>None</div></td></tr><tr><td style="font-weight:bold;vertical-align:top;">is_shell</td><td style="vertical-align:top;">:</td><td><div>None</div></td></tr><tr><td style="font-weight:bold;vertical-align:top;">now</td><td style="vertical-align:top;">:</td><td><div>datetime.datetime(2016, 4, 11, 0, 57, 10, 626072)</div></td></tr><tr><td style="font-weight:bold;vertical-align:top;">raw_args</td><td style="vertical-align:top;">:</td><td><div></div></td></tr><tr><td style="font-weight:bold;vertical-align:top;">raw_extension</td><td style="vertical-align:top;">:</td><td><div>None</div></td></tr><tr><td style="font-weight:bold;vertical-align:top;">url</td><td style="vertical-align:top;">:</td><td><div>/SmartBlog/appadmin/hooks</div></td></tr><tr><td style="font-weight:bold;vertical-align:top;">utcnow</td><td style="vertical-align:top;">:</td><td><div>datetime.datetime(2016, 4, 11, 0, 57, 10, 626086)</div></td></tr><tr><td style="font-weight:bold;vertical-align:top;">uuid</td><td style="vertical-align:top;">:</td><td><div>SmartBlog/104.32.222.90.2016-04-11.00-57-10.366532b9-0279-4ca8-9697-22ef61c411a0</div></td></tr><tr><td style="font-weight:bold;vertical-align:top;">wsgi</td><td style="vertical-align:top;">:</td><td><div>&lt;gluon.main.LazyWSGI object at 0x7fe9c4455750&gt;</div></td></tr></table></div>'
tRp70
sS'frames'
p71
(lp72
(dp73
S'file'
p74
S'/home/jerryliu0228/web2py/gluon/restricted.py'
p75
sS'dump'
p76
(dp77
S'environment'
p78
S"{'A': <class 'gluon.html.A'>, 'ANY_OF': <class 'gluon.validators.ANY_OF'>, 'ASSIGNJS': <function ASSIGNJS>, 'Auth': <class 'gluon.tools.Auth'>, 'B': <class 'gluon.html.B'>, 'BEAUTIFY': <class 'gluon.html.BEAUTIFY'>, 'BODY': <class 'gluon.html.BODY'>, 'BR': <class 'gluon.html.BR'>, 'BUTTON': <class 'gluon.html.BUTTON'>, 'CAT': <class 'gluon.html.CAT'>, ...}"
p79
sS'ccode'
p80
S'<code object <module> at 0x7fe9c76342b0, file "/...pplications/SmartBlog/models/db_post.py", line 3>'
p81
ssS'lnum'
p82
I224
sS'lines'
p83
(dp84
I224
S'        exec ccode in environment'
p85
sI225
S'    except HTTP:'
p86
sI226
S'        raise'
p87
sI227
S'    except RestrictedError:'
p88
sI228
S'        # do not encapsulate (obfuscate) the original RestrictedError'
p89
sI219
S'    try:'
p90
sI220
S'        if isinstance(code, types.CodeType):'
p91
sI221
S'            ccode = code'
p92
sI222
S'        else:'
p93
sI223
S'            ccode = compile2(code, layer)'
p94
ssS'call'
p95
S'(code="# -*- coding: utf-8 -*-\\n\\ndb.define_table(\'catego...gory), groupby = db.category.id)\\n    return rows\\n", environment={\'A\': <class \'gluon.html.A\'>, \'ANY_OF\': <class \'gluon.validators.ANY_OF\'>, \'ASSIGNJS\': <function ASSIGNJS>, \'Auth\': <class \'gluon.tools.Auth\'>, \'B\': <class \'gluon.html.B\'>, \'BEAUTIFY\': <class \'gluon.html.BEAUTIFY\'>, \'BODY\': <class \'gluon.html.BODY\'>, \'BR\': <class \'gluon.html.BR\'>, \'BUTTON\': <class \'gluon.html.BUTTON\'>, \'CAT\': <class \'gluon.html.CAT\'>, ...}, layer=\'/home/jerryliu0228/web2py/applications/SmartBlog/models/db_post.py\')'
p96
sS'func'
p97
S'restricted'
p98
sa(dp99
g74
S'/home/jerryliu0228/web2py/applications/SmartBlog/models/db_post.py'
p100
sg76
(dp101
S'Field'
p102
S"<class 'gluon.dal.objects.Field'>"
p103
ssg82
I20
sg83
(dp104
I15
S"                Field('post_datetime', 'datetime')"
p105
sI16
S'                )'
p106
sI17
S''
sI18
S"db.define_table('post_tag',"
p107
sI19
S"                 Field('post', 'reference post'),"
p108
sI20
S"                 Field('tag', 'tag')"
p109
sI21
S'                 )'
p110
sI22
S''
sI23
S'def getAllCategories():'
p111
sI24
S'    query = db.category.id>0'
p112
ssg95
S'()'
p113
sg97
S'<module>'
p114
sa(dp115
g74
S'/home/jerryliu0228/web2py/gluon/dal/base.py'
p116
sg76
(dp117
S'fields'
p118
S'(<gluon.dal.objects.Field object>, <gluon.dal.objects.Field object>)'
p119
sS'self'
p120
S'<DAL uri="sqlite://storage.sqlite">'
p121
sS'args'
p122
g21
sS'tablename'
p123
S"'post_tag'"
p124
sS'table'
p125
S'undefined'
p126
sS'self.lazy_define_table'
p127
S'<bound method DAL.lazy_define_table of <DAL uri="sqlite://storage.sqlite">>'
p128
ssg82
I787
sg83
(dp129
I782
S'                    % (tablename,invalid_args))'
p130
sI783
S'        if self._lazy_tables and not tablename in self._LAZY_TABLES:'
p131
sI784
S'            self._LAZY_TABLES[tablename] = (tablename,fields,args)'
p132
sI785
S'            table = None'
p133
sI786
S'        else:'
p134
sI787
S'            table = self.lazy_define_table(tablename,*fields,**args)'
p135
sI788
S'        if not tablename in self.tables:'
p136
sI789
S'            self.tables.append(tablename)'
p137
sI790
S'        return table'
p138
sI791
S''
ssg95
S'(self=<DAL uri="sqlite://storage.sqlite">, tablename=\'post_tag\', *fields=(<gluon.dal.objects.Field object>, <gluon.dal.objects.Field object>), **args={})'
p139
sg97
S'define_table'
p140
sa(dp141
g74
S'/home/jerryliu0228/web2py/gluon/dal/base.py'
p142
sg76
(dp143
S'polymodel'
p144
S'None'
p145
ssg82
I824
sg83
(dp146
I819
S'            try:'
p147
sI820
S'                GLOBAL_LOCKER.acquire()'
p148
sI821
S'                self._lastsql = self._adapter.create_table('
p149
sI822
S'                    table,migrate=migrate,'
p150
sI823
S'                    fake_migrate=fake_migrate,'
p151
sI824
S'                    polymodel=polymodel)'
p152
sI825
S'            finally:'
p153
sI826
S'                GLOBAL_LOCKER.release()'
p154
sI827
S'        else:'
p155
sI828
S'            table._dbt = None'
p156
ssg95
S'(self=<DAL uri="sqlite://storage.sqlite">, tablename=\'post_tag\', *fields=(<gluon.dal.objects.Field object>, <gluon.dal.objects.Field object>), **args={})'
p157
sg97
S'lazy_define_table'
p158
sa(dp159
g74
S'/home/jerryliu0228/web2py/gluon/dal/adapters/base.py'
p160
sg76
(dp161
S'field_type'
p162
S"'tag'"
p163
sS'field_name'
p164
S"'tag'"
p165
ssg82
I362
sg83
(dp166
I357
S'                                         fieldname=field_name, srid=srid,'
p167
sI358
S'                                         dimension=dimension)'
p168
sI359
S'                    postcreation_fields.append(ftype)'
p169
sI360
S'            elif not field_type in types:'
p170
sI361
S"                raise SyntaxError('Field: unknown field type: %s for %s' % \\"
p171
sI362
S'                    (field_type, field_name))'
p172
sI363
S'            else:'
p173
sI364
S'                ftype = types[field_type]\\'
p174
sI365
S'                     % dict(length=field.length)'
p175
sI366
S"            if not field_type.startswith('id') and \\"
p176
ssg95
S'(self=<gluon.dal.adapters.sqlite.SQLiteAdapter object>, table=<Table post_tag (id,post,tag)>, migrate=True, fake_migrate=False, polymodel=None)'
p177
sg97
S'create_table'
p178
sasS'pyver'
p179
S'Python 2.7.6: /usr/local/bin/uwsgi (prefix: /usr)'
p180
sS'session'
p181
g69
(S's\x0c\x0e\x00\x00<div><table><tr><td style="font-weight:bold;vertical-align:top;">auth</td><td style="vertical-align:top;">:</td><td><div><table><tr><td style="font-weight:bold;vertical-align:top;">expiration</td><td style="vertical-align:top;">:</td><td><div>3600</div></td></tr><tr><td style="font-weight:bold;vertical-align:top;">hmac_key</td><td style="vertical-align:top;">:</td><td><div>02035175-260f-4cb6-b533-9ba2002d04c4</div></td></tr><tr><td style="font-weight:bold;vertical-align:top;">last_visit</td><td style="vertical-align:top;">:</td><td><div>datetime.datetime(2016, 4, 11, 0, 55, 10, 628140)</div></td></tr><tr><td style="font-weight:bold;vertical-align:top;">remember_me</td><td style="vertical-align:top;">:</td><td><div>False</div></td></tr><tr><td style="font-weight:bold;vertical-align:top;">user</td><td style="vertical-align:top;">:</td><td><div><table><tr><td style="font-weight:bold;vertical-align:top;">created_by</td><td style="vertical-align:top;">:</td><td><div>None</div></td></tr><tr><td style="font-weight:bold;vertical-align:top;">created_on</td><td style="vertical-align:top;">:</td><td><div>datetime.datetime(2016, 4, 6, 5, 46, 16)</div></td></tr><tr><td style="font-weight:bold;vertical-align:top;">email</td><td style="vertical-align:top;">:</td><td><div>jerryliu0228@gmail.com</div></td></tr><tr><td style="font-weight:bold;vertical-align:top;">first_name</td><td style="vertical-align:top;">:</td><td><div></div></td></tr><tr><td style="font-weight:bold;vertical-align:top;">id</td><td style="vertical-align:top;">:</td><td><div>111L</div></td></tr><tr><td style="font-weight:bold;vertical-align:top;">is_active</td><td style="vertical-align:top;">:</td><td><div>True</div></td></tr><tr><td style="font-weight:bold;vertical-align:top;">last_name</td><td style="vertical-align:top;">:</td><td><div></div></td></tr><tr><td style="font-weight:bold;vertical-align:top;">modified_by</td><td style="vertical-align:top;">:</td><td><div>None</div></td></tr><tr><td style="font-weight:bold;vertical-align:top;">modified_on</td><td style="vertical-align:top;">:</td><td><div>datetime.datetime(2016, 4, 6, 5, 46, 16)</div></td></tr><tr><td style="font-weight:bold;vertical-align:top;">registration_id</td><td style="vertical-align:top;">:</td><td><div></div></td></tr><tr><td style="font-weight:bold;vertical-align:top;">registration_key</td><td style="vertical-align:top;">:</td><td><div></div></td></tr><tr><td style="font-weight:bold;vertical-align:top;">reset_password_key</td><td style="vertical-align:top;">:</td><td><div></div></td></tr><tr><td style="font-weight:bold;vertical-align:top;">username</td><td style="vertical-align:top;">:</td><td><div>admin1</div></td></tr></table></div></td></tr><tr><td style="font-weight:bold;vertical-align:top;">user_groups</td><td style="vertical-align:top;">:</td><td><div><table><tr><td style="font-weight:bold;vertical-align:top;">325</td><td style="vertical-align:top;">:</td><td><div>admin</div></td></tr></table></div></td></tr></table></div></td></tr><tr><td style="font-weight:bold;vertical-align:top;">flash</td><td style="vertical-align:top;">:</td><td><div>None</div></td></tr><tr><td style="font-weight:bold;vertical-align:top;">last_orderby</td><td style="vertical-align:top;">:</td><td><div>None</div></td></tr><tr><td style="font-weight:bold;vertical-align:top;">last_query</td><td style="vertical-align:top;">:</td><td><div>db.post.id&gt;0</div></td></tr><tr><td style="font-weight:bold;vertical-align:top;">user_timezone</td><td style="vertical-align:top;">:</td><td><div>America/Los_Angeles</div></td></tr></table></div>'
tRp182
sS'etype'
p183
S"<type 'exceptions.SyntaxError'>"
p184
sS'date'
p185
S'Mon Apr 11 00:57:10 2016'
p186
sS'response'
p187
g69
(S's\xff\x17\x00\x00<div><table><tr><td style="font-weight:bold;vertical-align:top;">body</td><td style="vertical-align:top;">:</td><td><div>&lt;cStringIO.StringO object at 0x7fe9c439eca8&gt;</div></td></tr><tr><td style="font-weight:bold;vertical-align:top;">cookies</td><td style="vertical-align:top;">:</td><td><div><table><tr><td style="font-weight:bold;vertical-align:top;">session_id_smartblog</td><td style="vertical-align:top;">:</td><td><div>104.32.222.90-07d8eac7-6980-409b-840c-5333e098c8de<table><tr><td style="font-weight:bold;vertical-align:top;">comment</td><td style="vertical-align:top;">:</td><td><div></div></td></tr><tr><td style="font-weight:bold;vertical-align:top;">domain</td><td style="vertical-align:top;">:</td><td><div></div></td></tr><tr><td style="font-weight:bold;vertical-align:top;">expires</td><td style="vertical-align:top;">:</td><td><div></div></td></tr><tr><td style="font-weight:bold;vertical-align:top;">httponly</td><td style="vertical-align:top;">:</td><td><div></div></td></tr><tr><td style="font-weight:bold;vertical-align:top;">max-age</td><td style="vertical-align:top;">:</td><td><div></div></td></tr><tr><td style="font-weight:bold;vertical-align:top;">path</td><td style="vertical-align:top;">:</td><td><div>/</div></td></tr><tr><td style="font-weight:bold;vertical-align:top;">secure</td><td style="vertical-align:top;">:</td><td><div></div></td></tr><tr><td style="font-weight:bold;vertical-align:top;">version</td><td style="vertical-align:top;">:</td><td><div></div></td></tr></table></div></td></tr></table></div></td></tr><tr><td style="font-weight:bold;vertical-align:top;">delimiters</td><td style="vertical-align:top;">:</td><td><div><table><tr><td><div>{{</div></td></tr><tr><td><div>}}</div></td></tr></table></div></td></tr><tr><td style="font-weight:bold;vertical-align:top;">files</td><td style="vertical-align:top;">:</td><td><div><table></table></div></td></tr><tr><td style="font-weight:bold;vertical-align:top;">flash</td><td style="vertical-align:top;">:</td><td><div></div></td></tr><tr><td style="font-weight:bold;vertical-align:top;">form_label_separator</td><td style="vertical-align:top;">:</td><td><div>: </div></td></tr><tr><td style="font-weight:bold;vertical-align:top;">formstyle</td><td style="vertical-align:top;">:</td><td><div>table3cols</div></td></tr><tr><td style="font-weight:bold;vertical-align:top;">generic_patterns</td><td style="vertical-align:top;">:</td><td><div><table></table></div></td></tr><tr><td style="font-weight:bold;vertical-align:top;">headers</td><td style="vertical-align:top;">:</td><td><div><table><tr><td style="font-weight:bold;vertical-align:top;">X-Powered-By</td><td style="vertical-align:top;">:</td><td><div>web2py</div></td></tr></table></div></td></tr><tr><td style="font-weight:bold;vertical-align:top;">menu</td><td style="vertical-align:top;">:</td><td><div><table></table></div></td></tr><tr><td style="font-weight:bold;vertical-align:top;">meta</td><td style="vertical-align:top;">:</td><td><div><table></table></div></td></tr><tr><td style="font-weight:bold;vertical-align:top;">models_to_run</td><td style="vertical-align:top;">:</td><td><div><table><tr><td><div>^\\w+\\.py$</div></td></tr><tr><td><div>^appadmin/\\w+\\.py$</div></td></tr><tr><td><div>^appadmin/hooks/\\w+\\.py$</div></td></tr></table></div></td></tr><tr><td style="font-weight:bold;vertical-align:top;">postprocessing</td><td style="vertical-align:top;">:</td><td><div><table></table></div></td></tr><tr><td style="font-weight:bold;vertical-align:top;">session_client</td><td style="vertical-align:top;">:</td><td><div>104.32.222.90</div></td></tr><tr><td style="font-weight:bold;vertical-align:top;">session_cookie_compression_level</td><td style="vertical-align:top;">:</td><td><div>None</div></td></tr><tr><td style="font-weight:bold;vertical-align:top;">session_cookie_expires</td><td style="vertical-align:top;">:</td><td><div>None</div></td></tr><tr><td style="font-weight:bold;vertical-align:top;">session_cookie_key</td><td style="vertical-align:top;">:</td><td><div>None</div></td></tr><tr><td style="font-weight:bold;vertical-align:top;">session_data_name</td><td style="vertical-align:top;">:</td><td><div>session_data_smartblog</div></td></tr><tr><td style="font-weight:bold;vertical-align:top;">session_file</td><td style="vertical-align:top;">:</td><td><div>&lt;open file &#x27;/home/jerryliu0228/web2py/applications/SmartBlog/sessions/168/05a/104.32.222.90-07d8eac7-6980-409b-840c-5333e098c8de&#x27;, mode &#x27;rb+&#x27; at 0x7fe9c5bcfed0&gt;</div></td></tr><tr><td style="font-weight:bold;vertical-align:top;">session_filename</td><td style="vertical-align:top;">:</td><td><div>/home/jerryliu0228/web2py/applications/SmartBlog/sessions/104.32.222.90-07d8eac7-6980-409b-840c-5333e098c8de</div></td></tr><tr><td style="font-weight:bold;vertical-align:top;">session_hash</td><td style="vertical-align:top;">:</td><td><div>8dcbe05a909d8774aa9d7c6527afbe45</div></td></tr><tr><td style="font-weight:bold;vertical-align:top;">session_id</td><td style="vertical-align:top;">:</td><td><div>104.32.222.90-07d8eac7-6980-409b-840c-5333e098c8de</div></td></tr><tr><td style="font-weight:bold;vertical-align:top;">session_id_name</td><td style="vertical-align:top;">:</td><td><div>session_id_smartblog</div></td></tr><tr><td style="font-weight:bold;vertical-align:top;">session_locked</td><td style="vertical-align:top;">:</td><td><div>True</div></td></tr><tr><td style="font-weight:bold;vertical-align:top;">session_masterapp</td><td style="vertical-align:top;">:</td><td><div>SmartBlog</div></td></tr><tr><td style="font-weight:bold;vertical-align:top;">session_new</td><td style="vertical-align:top;">:</td><td><div>False</div></td></tr><tr><td style="font-weight:bold;vertical-align:top;">session_storage_type</td><td style="vertical-align:top;">:</td><td><div>file</div></td></tr><tr><td style="font-weight:bold;vertical-align:top;">status</td><td style="vertical-align:top;">:</td><td><div>200</div></td></tr><tr><td style="font-weight:bold;vertical-align:top;">view</td><td style="vertical-align:top;">:</td><td><div>appadmin/hooks.html</div></td></tr></table></div>'
tRp188
sS'locals'
p189
(dp190
S'rtablename'
p191
S"'post'"
p192
sS'referenced'
p193
S"'post'"
p194
sS'migrate'
p195
S'True'
p196
sS'constraint_name'
p197
S"'post_tag_post__constraint'"
p198
sS'table'
p199
S'<Table post_tag (id,post,tag)>'
p200
sS'real_referenced'
p201
S"'post'"
p202
sS'postcreation_fields'
p203
S'[]'
p204
sS'field_type'
p205
S"'tag'"
p206
sS'self'
p207
S'<gluon.dal.adapters.sqlite.SQLiteAdapter object>'
p208
sS'tablename'
p209
S"'post_tag'"
p210
sS'field'
p211
S'<gluon.dal.objects.Field object>'
p212
sS'ftype'
p213
S"'INTEGER REFERENCES post (id) ON DELETE CASCADE'"
p214
sS'rtable'
p215
S'<Table post (id,title,body,category,author,if_display_author,post_datetime)>'
p216
sS'id_fieldname'
p217
S"'id'"
p218
sS'polymodel'
p219
S'None'
p220
sS'rfieldname'
p221
S"'id'"
p222
sS'db'
p223
S'<DAL uri="sqlite://storage.sqlite">'
p224
sS'fake_migrate'
p225
S'False'
p226
sS'sql_fields'
p227
S"{'id': {'length': 512, 'notnull': False, 'sortable': 1, 'sql': 'INTEGER PRIMARY KEY AUTOINCREMENT', 'type': 'id', 'unique': False}, 'post': {'length': 512, 'notnull': False, 'sortable': 2, 'sql': 'INTEGER REFERENCES post (id) ON DELETE CASCADE', 'type': 'reference post', 'unique': False}}"
p228
sS'field_name'
p229
S"'tag'"
p230
sS'types'
p231
S"{'big-id': 'INTEGER PRIMARY KEY AUTOINCREMENT', 'big-reference': 'INTEGER REFERENCES %(foreign_key)s ON DELETE %(on_delete_action)s', 'bigint': 'INTEGER', 'blob': 'BLOB', 'boolean': 'CHAR(1)', 'date': 'DATE', 'datetime': 'TIMESTAMP', 'decimal': 'DOUBLE', 'double': 'DOUBLE', 'float': 'DOUBLE', ...}"
p232
sS'sortable'
p233
S'3'
sS'sql_fields_aux'
p234
S"{'id': {'sql': 'INTEGER PRIMARY KEY AUTOINCREMENT'}, 'post': {'sql': 'INTEGER REFERENCES post (id) ON DELETE CASCADE'}}"
p235
sS'TFK'
p236
g21
sS'fields'
p237
S"['id INTEGER PRIMARY KEY AUTOINCREMENT', 'post INTEGER REFERENCES post (id) ON DELETE CASCADE']"
p238
sS'rfield'
p239
S'<gluon.dal.objects.Field object>'
p240
sssS'traceback'
p241
S'Traceback (most recent call last):\n  File "/home/jerryliu0228/web2py/gluon/restricted.py", line 224, in restricted\n    exec ccode in environment\n  File "/home/jerryliu0228/web2py/applications/SmartBlog/models/db_post.py", line 20, in <module>\n    Field(\'tag\', \'tag\')\n  File "/home/jerryliu0228/web2py/gluon/dal/base.py", line 787, in define_table\n    table = self.lazy_define_table(tablename,*fields,**args)\n  File "/home/jerryliu0228/web2py/gluon/dal/base.py", line 824, in lazy_define_table\n    polymodel=polymodel)\n  File "/home/jerryliu0228/web2py/gluon/dal/adapters/base.py", line 362, in create_table\n    (field_type, field_name))\nSyntaxError: Field: unknown field type: tag for tag\n'
p242
s.